
./ctarget:     elf64-x86-64 dosya biçemi


Disassembly of section .init:

0000000000400c48 <_init>:
  400c48:	48 83 ec 08          	sub    $0x8,%rsp
  400c4c:	48 8b 05 a5 43 20 00 	mov    0x2043a5(%rip),%rax        # 604ff8 <__gmon_start__>
  400c53:	48 85 c0             	test   %rax,%rax
  400c58:	e8 43 02 00 00       	callq  400ea0 <.plt.got>
  400c5d:	48 83 c4 08          	add    $0x8,%rsp
  400c61:	c3                   	retq   

Disassembly of section .plt:

0000000000400c70 <.plt>:
  400c70:	ff 35 92 43 20 00    	pushq  0x204392(%rip)        # 605008 <_GLOBAL_OFFSET_TABLE_+0x8>
  400c76:	ff 25 94 43 20 00    	jmpq   *0x204394(%rip)        # 605010 <_GLOBAL_OFFSET_TABLE_+0x10>
  400c7c:	0f 1f 40 00          	nopl   0x0(%rax)

0000000000400c80 <strcasecmp@plt>:
  400c80:	ff 25 92 43 20 00    	jmpq   *0x204392(%rip)        # 605018 <strcasecmp@GLIBC_2.2.5>
  400c86:	68 00 00 00 00       	pushq  $0x0
  400c8b:	e9 e0 ff ff ff       	jmpq   400c70 <.plt>

0000000000400c90 <__errno_location@plt>:
  400c90:	ff 25 8a 43 20 00    	jmpq   *0x20438a(%rip)        # 605020 <__errno_location@GLIBC_2.2.5>
  400c96:	68 01 00 00 00       	pushq  $0x1
  400c9b:	e9 d0 ff ff ff       	jmpq   400c70 <.plt>

0000000000400ca0 <srandom@plt>:
  400ca0:	ff 25 82 43 20 00    	jmpq   *0x204382(%rip)        # 605028 <srandom@GLIBC_2.2.5>
  400ca6:	68 02 00 00 00       	pushq  $0x2
  400cab:	e9 c0 ff ff ff       	jmpq   400c70 <.plt>

0000000000400cb0 <strncmp@plt>:
  400cb0:	ff 25 7a 43 20 00    	jmpq   *0x20437a(%rip)        # 605030 <strncmp@GLIBC_2.2.5>
  400cb6:	68 03 00 00 00       	pushq  $0x3
  400cbb:	e9 b0 ff ff ff       	jmpq   400c70 <.plt>

0000000000400cc0 <strcpy@plt>:
  400cc0:	ff 25 72 43 20 00    	jmpq   *0x204372(%rip)        # 605038 <strcpy@GLIBC_2.2.5>
  400cc6:	68 04 00 00 00       	pushq  $0x4
  400ccb:	e9 a0 ff ff ff       	jmpq   400c70 <.plt>

0000000000400cd0 <puts@plt>:
  400cd0:	ff 25 6a 43 20 00    	jmpq   *0x20436a(%rip)        # 605040 <puts@GLIBC_2.2.5>
  400cd6:	68 05 00 00 00       	pushq  $0x5
  400cdb:	e9 90 ff ff ff       	jmpq   400c70 <.plt>

0000000000400ce0 <write@plt>:
  400ce0:	ff 25 62 43 20 00    	jmpq   *0x204362(%rip)        # 605048 <write@GLIBC_2.2.5>
  400ce6:	68 06 00 00 00       	pushq  $0x6
  400ceb:	e9 80 ff ff ff       	jmpq   400c70 <.plt>

0000000000400cf0 <__stack_chk_fail@plt>:
  400cf0:	ff 25 5a 43 20 00    	jmpq   *0x20435a(%rip)        # 605050 <__stack_chk_fail@GLIBC_2.4>
  400cf6:	68 07 00 00 00       	pushq  $0x7
  400cfb:	e9 70 ff ff ff       	jmpq   400c70 <.plt>

0000000000400d00 <mmap@plt>:
  400d00:	ff 25 52 43 20 00    	jmpq   *0x204352(%rip)        # 605058 <mmap@GLIBC_2.2.5>
  400d06:	68 08 00 00 00       	pushq  $0x8
  400d0b:	e9 60 ff ff ff       	jmpq   400c70 <.plt>

0000000000400d10 <memset@plt>:
  400d10:	ff 25 4a 43 20 00    	jmpq   *0x20434a(%rip)        # 605060 <memset@GLIBC_2.2.5>
  400d16:	68 09 00 00 00       	pushq  $0x9
  400d1b:	e9 50 ff ff ff       	jmpq   400c70 <.plt>

0000000000400d20 <alarm@plt>:
  400d20:	ff 25 42 43 20 00    	jmpq   *0x204342(%rip)        # 605068 <alarm@GLIBC_2.2.5>
  400d26:	68 0a 00 00 00       	pushq  $0xa
  400d2b:	e9 40 ff ff ff       	jmpq   400c70 <.plt>

0000000000400d30 <close@plt>:
  400d30:	ff 25 3a 43 20 00    	jmpq   *0x20433a(%rip)        # 605070 <close@GLIBC_2.2.5>
  400d36:	68 0b 00 00 00       	pushq  $0xb
  400d3b:	e9 30 ff ff ff       	jmpq   400c70 <.plt>

0000000000400d40 <read@plt>:
  400d40:	ff 25 32 43 20 00    	jmpq   *0x204332(%rip)        # 605078 <read@GLIBC_2.2.5>
  400d46:	68 0c 00 00 00       	pushq  $0xc
  400d4b:	e9 20 ff ff ff       	jmpq   400c70 <.plt>

0000000000400d50 <__libc_start_main@plt>:
  400d50:	ff 25 2a 43 20 00    	jmpq   *0x20432a(%rip)        # 605080 <__libc_start_main@GLIBC_2.2.5>
  400d56:	68 0d 00 00 00       	pushq  $0xd
  400d5b:	e9 10 ff ff ff       	jmpq   400c70 <.plt>

0000000000400d60 <signal@plt>:
  400d60:	ff 25 22 43 20 00    	jmpq   *0x204322(%rip)        # 605088 <signal@GLIBC_2.2.5>
  400d66:	68 0e 00 00 00       	pushq  $0xe
  400d6b:	e9 00 ff ff ff       	jmpq   400c70 <.plt>

0000000000400d70 <gethostbyname@plt>:
  400d70:	ff 25 1a 43 20 00    	jmpq   *0x20431a(%rip)        # 605090 <gethostbyname@GLIBC_2.2.5>
  400d76:	68 0f 00 00 00       	pushq  $0xf
  400d7b:	e9 f0 fe ff ff       	jmpq   400c70 <.plt>

0000000000400d80 <__memmove_chk@plt>:
  400d80:	ff 25 12 43 20 00    	jmpq   *0x204312(%rip)        # 605098 <__memmove_chk@GLIBC_2.3.4>
  400d86:	68 10 00 00 00       	pushq  $0x10
  400d8b:	e9 e0 fe ff ff       	jmpq   400c70 <.plt>

0000000000400d90 <strtol@plt>:
  400d90:	ff 25 0a 43 20 00    	jmpq   *0x20430a(%rip)        # 6050a0 <strtol@GLIBC_2.2.5>
  400d96:	68 11 00 00 00       	pushq  $0x11
  400d9b:	e9 d0 fe ff ff       	jmpq   400c70 <.plt>

0000000000400da0 <memcpy@plt>:
  400da0:	ff 25 02 43 20 00    	jmpq   *0x204302(%rip)        # 6050a8 <memcpy@GLIBC_2.14>
  400da6:	68 12 00 00 00       	pushq  $0x12
  400dab:	e9 c0 fe ff ff       	jmpq   400c70 <.plt>

0000000000400db0 <time@plt>:
  400db0:	ff 25 fa 42 20 00    	jmpq   *0x2042fa(%rip)        # 6050b0 <time@GLIBC_2.2.5>
  400db6:	68 13 00 00 00       	pushq  $0x13
  400dbb:	e9 b0 fe ff ff       	jmpq   400c70 <.plt>

0000000000400dc0 <random@plt>:
  400dc0:	ff 25 f2 42 20 00    	jmpq   *0x2042f2(%rip)        # 6050b8 <random@GLIBC_2.2.5>
  400dc6:	68 14 00 00 00       	pushq  $0x14
  400dcb:	e9 a0 fe ff ff       	jmpq   400c70 <.plt>

0000000000400dd0 <_IO_getc@plt>:
  400dd0:	ff 25 ea 42 20 00    	jmpq   *0x2042ea(%rip)        # 6050c0 <_IO_getc@GLIBC_2.2.5>
  400dd6:	68 15 00 00 00       	pushq  $0x15
  400ddb:	e9 90 fe ff ff       	jmpq   400c70 <.plt>

0000000000400de0 <__isoc99_sscanf@plt>:
  400de0:	ff 25 e2 42 20 00    	jmpq   *0x2042e2(%rip)        # 6050c8 <__isoc99_sscanf@GLIBC_2.7>
  400de6:	68 16 00 00 00       	pushq  $0x16
  400deb:	e9 80 fe ff ff       	jmpq   400c70 <.plt>

0000000000400df0 <munmap@plt>:
  400df0:	ff 25 da 42 20 00    	jmpq   *0x2042da(%rip)        # 6050d0 <munmap@GLIBC_2.2.5>
  400df6:	68 17 00 00 00       	pushq  $0x17
  400dfb:	e9 70 fe ff ff       	jmpq   400c70 <.plt>

0000000000400e00 <__printf_chk@plt>:
  400e00:	ff 25 d2 42 20 00    	jmpq   *0x2042d2(%rip)        # 6050d8 <__printf_chk@GLIBC_2.3.4>
  400e06:	68 18 00 00 00       	pushq  $0x18
  400e0b:	e9 60 fe ff ff       	jmpq   400c70 <.plt>

0000000000400e10 <fopen@plt>:
  400e10:	ff 25 ca 42 20 00    	jmpq   *0x2042ca(%rip)        # 6050e0 <fopen@GLIBC_2.2.5>
  400e16:	68 19 00 00 00       	pushq  $0x19
  400e1b:	e9 50 fe ff ff       	jmpq   400c70 <.plt>

0000000000400e20 <getopt@plt>:
  400e20:	ff 25 c2 42 20 00    	jmpq   *0x2042c2(%rip)        # 6050e8 <getopt@GLIBC_2.2.5>
  400e26:	68 1a 00 00 00       	pushq  $0x1a
  400e2b:	e9 40 fe ff ff       	jmpq   400c70 <.plt>

0000000000400e30 <strtoul@plt>:
  400e30:	ff 25 ba 42 20 00    	jmpq   *0x2042ba(%rip)        # 6050f0 <strtoul@GLIBC_2.2.5>
  400e36:	68 1b 00 00 00       	pushq  $0x1b
  400e3b:	e9 30 fe ff ff       	jmpq   400c70 <.plt>

0000000000400e40 <gethostname@plt>:
  400e40:	ff 25 b2 42 20 00    	jmpq   *0x2042b2(%rip)        # 6050f8 <gethostname@GLIBC_2.2.5>
  400e46:	68 1c 00 00 00       	pushq  $0x1c
  400e4b:	e9 20 fe ff ff       	jmpq   400c70 <.plt>

0000000000400e50 <exit@plt>:
  400e50:	ff 25 aa 42 20 00    	jmpq   *0x2042aa(%rip)        # 605100 <exit@GLIBC_2.2.5>
  400e56:	68 1d 00 00 00       	pushq  $0x1d
  400e5b:	e9 10 fe ff ff       	jmpq   400c70 <.plt>

0000000000400e60 <connect@plt>:
  400e60:	ff 25 a2 42 20 00    	jmpq   *0x2042a2(%rip)        # 605108 <connect@GLIBC_2.2.5>
  400e66:	68 1e 00 00 00       	pushq  $0x1e
  400e6b:	e9 00 fe ff ff       	jmpq   400c70 <.plt>

0000000000400e70 <__fprintf_chk@plt>:
  400e70:	ff 25 9a 42 20 00    	jmpq   *0x20429a(%rip)        # 605110 <__fprintf_chk@GLIBC_2.3.4>
  400e76:	68 1f 00 00 00       	pushq  $0x1f
  400e7b:	e9 f0 fd ff ff       	jmpq   400c70 <.plt>

0000000000400e80 <__sprintf_chk@plt>:
  400e80:	ff 25 92 42 20 00    	jmpq   *0x204292(%rip)        # 605118 <__sprintf_chk@GLIBC_2.3.4>
  400e86:	68 20 00 00 00       	pushq  $0x20
  400e8b:	e9 e0 fd ff ff       	jmpq   400c70 <.plt>

0000000000400e90 <socket@plt>:
  400e90:	ff 25 8a 42 20 00    	jmpq   *0x20428a(%rip)        # 605120 <socket@GLIBC_2.2.5>
  400e96:	68 21 00 00 00       	pushq  $0x21
  400e9b:	e9 d0 fd ff ff       	jmpq   400c70 <.plt>

Disassembly of section .plt.got:

0000000000400ea0 <.plt.got>:
  400ea0:	ff 25 52 41 20 00    	jmpq   *0x204152(%rip)        # 604ff8 <__gmon_start__>
  400ea6:	66 90                	xchg   %ax,%ax

Disassembly of section .text:

0000000000400eb0 <_start>:
  400eb0:	31 ed                	xor    %ebp,%ebp
  400eb2:	49 89 d1             	mov    %rdx,%r9
  400eb5:	5e                   	pop    %rsi
  400eb6:	48 89 e2             	mov    %rsp,%rdx
  400eb9:	48 83 e4 f0          	and    $0xfffffffffffffff0,%rsp
  400ebd:	50                   	push   %rax
  400ebe:	54                   	push   %rsp
  400ebf:	49 c7 c0 20 2e 40 00 	mov    $0x402e20,%r8
  400ec6:	48 c7 c1 b0 2d 40 00 	mov    $0x402db0,%rcx
  400ecd:	48 c7 c7 b5 11 40 00 	mov    $0x4011b5,%rdi
  400ed4:	e8 77 fe ff ff       	callq  400d50 <__libc_start_main@plt>
  400ed9:	f4                   	hlt    
  400eda:	66 0f 1f 44 00 00    	nopw   0x0(%rax,%rax,1)

0000000000400ee0 <deregister_tm_clones>:
  400ee0:	b8 b7 54 60 00       	mov    $0x6054b7,%eax
  400ee5:	55                   	push   %rbp
  400ee6:	48 2d b0 54 60 00    	sub    $0x6054b0,%rax
  400eec:	48 83 f8 0e          	cmp    $0xe,%rax
  400ef0:	48 89 e5             	mov    %rsp,%rbp
  400ef3:	76 1b                	jbe    400f10 <deregister_tm_clones+0x30>
  400ef5:	b8 00 00 00 00       	mov    $0x0,%eax
  400efa:	48 85 c0             	test   %rax,%rax
  400efd:	74 11                	je     400f10 <deregister_tm_clones+0x30>
  400eff:	5d                   	pop    %rbp
  400f00:	bf b0 54 60 00       	mov    $0x6054b0,%edi
  400f05:	ff e0                	jmpq   *%rax
  400f07:	66 0f 1f 84 00 00 00 	nopw   0x0(%rax,%rax,1)
  400f0e:	00 00 
  400f10:	5d                   	pop    %rbp
  400f11:	c3                   	retq   
  400f12:	0f 1f 40 00          	nopl   0x0(%rax)
  400f16:	66 2e 0f 1f 84 00 00 	nopw   %cs:0x0(%rax,%rax,1)
  400f1d:	00 00 00 

0000000000400f20 <register_tm_clones>:
  400f20:	be b0 54 60 00       	mov    $0x6054b0,%esi
  400f25:	55                   	push   %rbp
  400f26:	48 81 ee b0 54 60 00 	sub    $0x6054b0,%rsi
  400f2d:	48 c1 fe 03          	sar    $0x3,%rsi
  400f31:	48 89 e5             	mov    %rsp,%rbp
  400f34:	48 89 f0             	mov    %rsi,%rax
  400f37:	48 c1 e8 3f          	shr    $0x3f,%rax
  400f3b:	48 01 c6             	add    %rax,%rsi
  400f3e:	48 d1 fe             	sar    %rsi
  400f41:	74 15                	je     400f58 <register_tm_clones+0x38>
  400f43:	b8 00 00 00 00       	mov    $0x0,%eax
  400f48:	48 85 c0             	test   %rax,%rax
  400f4b:	74 0b                	je     400f58 <register_tm_clones+0x38>
  400f4d:	5d                   	pop    %rbp
  400f4e:	bf b0 54 60 00       	mov    $0x6054b0,%edi
  400f53:	ff e0                	jmpq   *%rax
  400f55:	0f 1f 00             	nopl   (%rax)
  400f58:	5d                   	pop    %rbp
  400f59:	c3                   	retq   
  400f5a:	66 0f 1f 44 00 00    	nopw   0x0(%rax,%rax,1)

0000000000400f60 <__do_global_dtors_aux>:
  400f60:	80 3d 81 45 20 00 00 	cmpb   $0x0,0x204581(%rip)        # 6054e8 <completed.7585>
  400f67:	75 11                	jne    400f7a <__do_global_dtors_aux+0x1a>
  400f69:	55                   	push   %rbp
  400f6a:	48 89 e5             	mov    %rsp,%rbp
  400f6d:	e8 6e ff ff ff       	callq  400ee0 <deregister_tm_clones>
  400f72:	5d                   	pop    %rbp
  400f73:	c6 05 6e 45 20 00 01 	movb   $0x1,0x20456e(%rip)        # 6054e8 <completed.7585>
  400f7a:	f3 c3                	repz retq 
  400f7c:	0f 1f 40 00          	nopl   0x0(%rax)

0000000000400f80 <frame_dummy>:
  400f80:	bf 20 4e 60 00       	mov    $0x604e20,%edi
  400f85:	48 83 3f 00          	cmpq   $0x0,(%rdi)
  400f89:	75 05                	jne    400f90 <frame_dummy+0x10>
  400f8b:	eb 93                	jmp    400f20 <register_tm_clones>
  400f8d:	0f 1f 00             	nopl   (%rax)
  400f90:	b8 00 00 00 00       	mov    $0x0,%eax
  400f95:	48 85 c0             	test   %rax,%rax
  400f98:	74 f1                	je     400f8b <frame_dummy+0xb>
  400f9a:	55                   	push   %rbp
  400f9b:	48 89 e5             	mov    %rsp,%rbp
  400f9e:	ff d0                	callq  *%rax
  400fa0:	5d                   	pop    %rbp
  400fa1:	e9 7a ff ff ff       	jmpq   400f20 <register_tm_clones>

0000000000400fa6 <usage>:
  400fa6:	48 83 ec 08          	sub    $0x8,%rsp
  400faa:	48 89 fa             	mov    %rdi,%rdx
  400fad:	83 3d 74 45 20 00 00 	cmpl   $0x0,0x204574(%rip)        # 605528 <is_checker>
  400fb4:	74 3e                	je     400ff4 <usage+0x4e>
  400fb6:	be 38 2e 40 00       	mov    $0x402e38,%esi
  400fbb:	bf 01 00 00 00       	mov    $0x1,%edi
  400fc0:	b8 00 00 00 00       	mov    $0x0,%eax
  400fc5:	e8 36 fe ff ff       	callq  400e00 <__printf_chk@plt>
  400fca:	bf 70 2e 40 00       	mov    $0x402e70,%edi
  400fcf:	e8 fc fc ff ff       	callq  400cd0 <puts@plt>
  400fd4:	bf e8 2f 40 00       	mov    $0x402fe8,%edi
  400fd9:	e8 f2 fc ff ff       	callq  400cd0 <puts@plt>
  400fde:	bf 98 2e 40 00       	mov    $0x402e98,%edi
  400fe3:	e8 e8 fc ff ff       	callq  400cd0 <puts@plt>
  400fe8:	bf 02 30 40 00       	mov    $0x403002,%edi
  400fed:	e8 de fc ff ff       	callq  400cd0 <puts@plt>
  400ff2:	eb 32                	jmp    401026 <usage+0x80>
  400ff4:	be 1e 30 40 00       	mov    $0x40301e,%esi
  400ff9:	bf 01 00 00 00       	mov    $0x1,%edi
  400ffe:	b8 00 00 00 00       	mov    $0x0,%eax
  401003:	e8 f8 fd ff ff       	callq  400e00 <__printf_chk@plt>
  401008:	bf c0 2e 40 00       	mov    $0x402ec0,%edi
  40100d:	e8 be fc ff ff       	callq  400cd0 <puts@plt>
  401012:	bf e8 2e 40 00       	mov    $0x402ee8,%edi
  401017:	e8 b4 fc ff ff       	callq  400cd0 <puts@plt>
  40101c:	bf 3c 30 40 00       	mov    $0x40303c,%edi
  401021:	e8 aa fc ff ff       	callq  400cd0 <puts@plt>
  401026:	bf 00 00 00 00       	mov    $0x0,%edi
  40102b:	e8 20 fe ff ff       	callq  400e50 <exit@plt>

0000000000401030 <initialize_target>:
  401030:	55                   	push   %rbp
  401031:	53                   	push   %rbx
  401032:	48 81 ec 18 21 00 00 	sub    $0x2118,%rsp
  401039:	89 f5                	mov    %esi,%ebp
  40103b:	64 48 8b 04 25 28 00 	mov    %fs:0x28,%rax
  401042:	00 00 
  401044:	48 89 84 24 08 21 00 	mov    %rax,0x2108(%rsp)
  40104b:	00 
  40104c:	31 c0                	xor    %eax,%eax
  40104e:	89 3d c4 44 20 00    	mov    %edi,0x2044c4(%rip)        # 605518 <check_level>
  401054:	8b 3d 0e 41 20 00    	mov    0x20410e(%rip),%edi        # 605168 <target_id>
  40105a:	e8 2c 1d 00 00       	callq  402d8b <gencookie>
  40105f:	89 05 bf 44 20 00    	mov    %eax,0x2044bf(%rip)        # 605524 <cookie>
  401065:	89 c7                	mov    %eax,%edi
  401067:	e8 1f 1d 00 00       	callq  402d8b <gencookie>
  40106c:	89 05 ae 44 20 00    	mov    %eax,0x2044ae(%rip)        # 605520 <authkey>
  401072:	8b 05 f0 40 20 00    	mov    0x2040f0(%rip),%eax        # 605168 <target_id>
  401078:	8d 78 01             	lea    0x1(%rax),%edi
  40107b:	e8 20 fc ff ff       	callq  400ca0 <srandom@plt>
  401080:	e8 3b fd ff ff       	callq  400dc0 <random@plt>
  401085:	89 c7                	mov    %eax,%edi
  401087:	e8 03 03 00 00       	callq  40138f <scramble>
  40108c:	89 c3                	mov    %eax,%ebx
  40108e:	85 ed                	test   %ebp,%ebp
  401090:	74 18                	je     4010aa <initialize_target+0x7a>
  401092:	bf 00 00 00 00       	mov    $0x0,%edi
  401097:	e8 14 fd ff ff       	callq  400db0 <time@plt>
  40109c:	89 c7                	mov    %eax,%edi
  40109e:	e8 fd fb ff ff       	callq  400ca0 <srandom@plt>
  4010a3:	e8 18 fd ff ff       	callq  400dc0 <random@plt>
  4010a8:	eb 05                	jmp    4010af <initialize_target+0x7f>
  4010aa:	b8 00 00 00 00       	mov    $0x0,%eax
  4010af:	01 c3                	add    %eax,%ebx
  4010b1:	0f b7 db             	movzwl %bx,%ebx
  4010b4:	8d 04 dd 00 01 00 00 	lea    0x100(,%rbx,8),%eax
  4010bb:	89 c0                	mov    %eax,%eax
  4010bd:	48 89 05 dc 43 20 00 	mov    %rax,0x2043dc(%rip)        # 6054a0 <buf_offset>
  4010c4:	c6 05 7d 50 20 00 63 	movb   $0x63,0x20507d(%rip)        # 606148 <target_prefix>
  4010cb:	83 3d d6 43 20 00 00 	cmpl   $0x0,0x2043d6(%rip)        # 6054a8 <notify>
  4010d2:	0f 84 bb 00 00 00    	je     401193 <initialize_target+0x163>
  4010d8:	83 3d 49 44 20 00 00 	cmpl   $0x0,0x204449(%rip)        # 605528 <is_checker>
  4010df:	0f 85 ae 00 00 00    	jne    401193 <initialize_target+0x163>
  4010e5:	be 00 01 00 00       	mov    $0x100,%esi
  4010ea:	48 89 e7             	mov    %rsp,%rdi
  4010ed:	e8 4e fd ff ff       	callq  400e40 <gethostname@plt>
  4010f2:	85 c0                	test   %eax,%eax
  4010f4:	74 25                	je     40111b <initialize_target+0xeb>
  4010f6:	bf 18 2f 40 00       	mov    $0x402f18,%edi
  4010fb:	e8 d0 fb ff ff       	callq  400cd0 <puts@plt>
  401100:	bf 08 00 00 00       	mov    $0x8,%edi
  401105:	e8 46 fd ff ff       	callq  400e50 <exit@plt>
  40110a:	48 89 e6             	mov    %rsp,%rsi
  40110d:	e8 6e fb ff ff       	callq  400c80 <strcasecmp@plt>
  401112:	85 c0                	test   %eax,%eax
  401114:	74 21                	je     401137 <initialize_target+0x107>
  401116:	83 c3 01             	add    $0x1,%ebx
  401119:	eb 05                	jmp    401120 <initialize_target+0xf0>
  40111b:	bb 00 00 00 00       	mov    $0x0,%ebx
  401120:	48 63 c3             	movslq %ebx,%rax
  401123:	48 8b 3c c5 80 51 60 	mov    0x605180(,%rax,8),%rdi
  40112a:	00 
  40112b:	48 85 ff             	test   %rdi,%rdi
  40112e:	75 da                	jne    40110a <initialize_target+0xda>
  401130:	b8 00 00 00 00       	mov    $0x0,%eax
  401135:	eb 05                	jmp    40113c <initialize_target+0x10c>
  401137:	b8 01 00 00 00       	mov    $0x1,%eax
  40113c:	85 c0                	test   %eax,%eax
  40113e:	75 1c                	jne    40115c <initialize_target+0x12c>
  401140:	48 89 e2             	mov    %rsp,%rdx
  401143:	be 50 2f 40 00       	mov    $0x402f50,%esi
  401148:	bf 01 00 00 00       	mov    $0x1,%edi
  40114d:	e8 ae fc ff ff       	callq  400e00 <__printf_chk@plt>
  401152:	bf 08 00 00 00       	mov    $0x8,%edi
  401157:	e8 f4 fc ff ff       	callq  400e50 <exit@plt>
  40115c:	48 8d bc 24 00 01 00 	lea    0x100(%rsp),%rdi
  401163:	00 
  401164:	e8 8c 19 00 00       	callq  402af5 <init_driver>
  401169:	85 c0                	test   %eax,%eax
  40116b:	79 26                	jns    401193 <initialize_target+0x163>
  40116d:	48 8d 94 24 00 01 00 	lea    0x100(%rsp),%rdx
  401174:	00 
  401175:	be 90 2f 40 00       	mov    $0x402f90,%esi
  40117a:	bf 01 00 00 00       	mov    $0x1,%edi
  40117f:	b8 00 00 00 00       	mov    $0x0,%eax
  401184:	e8 77 fc ff ff       	callq  400e00 <__printf_chk@plt>
  401189:	bf 08 00 00 00       	mov    $0x8,%edi
  40118e:	e8 bd fc ff ff       	callq  400e50 <exit@plt>
  401193:	48 8b 84 24 08 21 00 	mov    0x2108(%rsp),%rax
  40119a:	00 
  40119b:	64 48 33 04 25 28 00 	xor    %fs:0x28,%rax
  4011a2:	00 00 
  4011a4:	74 05                	je     4011ab <initialize_target+0x17b>
  4011a6:	e8 45 fb ff ff       	callq  400cf0 <__stack_chk_fail@plt>
  4011ab:	48 81 c4 18 21 00 00 	add    $0x2118,%rsp
  4011b2:	5b                   	pop    %rbx
  4011b3:	5d                   	pop    %rbp
  4011b4:	c3                   	retq   

00000000004011b5 <main>:
  4011b5:	41 56                	push   %r14
  4011b7:	41 55                	push   %r13
  4011b9:	41 54                	push   %r12
  4011bb:	55                   	push   %rbp
  4011bc:	53                   	push   %rbx
  4011bd:	41 89 fc             	mov    %edi,%r12d
  4011c0:	48 89 f3             	mov    %rsi,%rbx
  4011c3:	be 30 1e 40 00       	mov    $0x401e30,%esi
  4011c8:	bf 0b 00 00 00       	mov    $0xb,%edi
  4011cd:	e8 8e fb ff ff       	callq  400d60 <signal@plt>
  4011d2:	be e2 1d 40 00       	mov    $0x401de2,%esi
  4011d7:	bf 07 00 00 00       	mov    $0x7,%edi
  4011dc:	e8 7f fb ff ff       	callq  400d60 <signal@plt>
  4011e1:	be 7e 1e 40 00       	mov    $0x401e7e,%esi
  4011e6:	bf 04 00 00 00       	mov    $0x4,%edi
  4011eb:	e8 70 fb ff ff       	callq  400d60 <signal@plt>
  4011f0:	83 3d 31 43 20 00 00 	cmpl   $0x0,0x204331(%rip)        # 605528 <is_checker>
  4011f7:	74 20                	je     401219 <main+0x64>
  4011f9:	be cc 1e 40 00       	mov    $0x401ecc,%esi
  4011fe:	bf 0e 00 00 00       	mov    $0xe,%edi
  401203:	e8 58 fb ff ff       	callq  400d60 <signal@plt>
  401208:	bf 05 00 00 00       	mov    $0x5,%edi
  40120d:	e8 0e fb ff ff       	callq  400d20 <alarm@plt>
  401212:	bd 5a 30 40 00       	mov    $0x40305a,%ebp
  401217:	eb 05                	jmp    40121e <main+0x69>
  401219:	bd 55 30 40 00       	mov    $0x403055,%ebp
  40121e:	48 8b 05 9b 42 20 00 	mov    0x20429b(%rip),%rax        # 6054c0 <stdin@@GLIBC_2.2.5>
  401225:	48 89 05 e4 42 20 00 	mov    %rax,0x2042e4(%rip)        # 605510 <infile>
  40122c:	41 bd 00 00 00 00    	mov    $0x0,%r13d
  401232:	41 be 00 00 00 00    	mov    $0x0,%r14d
  401238:	e9 c6 00 00 00       	jmpq   401303 <main+0x14e>
  40123d:	83 e8 61             	sub    $0x61,%eax
  401240:	3c 10                	cmp    $0x10,%al
  401242:	0f 87 9c 00 00 00    	ja     4012e4 <main+0x12f>
  401248:	0f b6 c0             	movzbl %al,%eax
  40124b:	ff 24 c5 a0 30 40 00 	jmpq   *0x4030a0(,%rax,8)
  401252:	48 8b 3b             	mov    (%rbx),%rdi
  401255:	e8 4c fd ff ff       	callq  400fa6 <usage>
  40125a:	be d5 35 40 00       	mov    $0x4035d5,%esi
  40125f:	48 8b 3d 62 42 20 00 	mov    0x204262(%rip),%rdi        # 6054c8 <optarg@@GLIBC_2.2.5>
  401266:	e8 a5 fb ff ff       	callq  400e10 <fopen@plt>
  40126b:	48 89 05 9e 42 20 00 	mov    %rax,0x20429e(%rip)        # 605510 <infile>
  401272:	48 85 c0             	test   %rax,%rax
  401275:	0f 85 88 00 00 00    	jne    401303 <main+0x14e>
  40127b:	48 8b 0d 46 42 20 00 	mov    0x204246(%rip),%rcx        # 6054c8 <optarg@@GLIBC_2.2.5>
  401282:	ba 62 30 40 00       	mov    $0x403062,%edx
  401287:	be 01 00 00 00       	mov    $0x1,%esi
  40128c:	48 8b 3d 4d 42 20 00 	mov    0x20424d(%rip),%rdi        # 6054e0 <stderr@@GLIBC_2.2.5>
  401293:	e8 d8 fb ff ff       	callq  400e70 <__fprintf_chk@plt>
  401298:	b8 01 00 00 00       	mov    $0x1,%eax
  40129d:	e9 e4 00 00 00       	jmpq   401386 <main+0x1d1>
  4012a2:	ba 10 00 00 00       	mov    $0x10,%edx
  4012a7:	be 00 00 00 00       	mov    $0x0,%esi
  4012ac:	48 8b 3d 15 42 20 00 	mov    0x204215(%rip),%rdi        # 6054c8 <optarg@@GLIBC_2.2.5>
  4012b3:	e8 78 fb ff ff       	callq  400e30 <strtoul@plt>
  4012b8:	41 89 c6             	mov    %eax,%r14d
  4012bb:	eb 46                	jmp    401303 <main+0x14e>
  4012bd:	ba 0a 00 00 00       	mov    $0xa,%edx
  4012c2:	be 00 00 00 00       	mov    $0x0,%esi
  4012c7:	48 8b 3d fa 41 20 00 	mov    0x2041fa(%rip),%rdi        # 6054c8 <optarg@@GLIBC_2.2.5>
  4012ce:	e8 bd fa ff ff       	callq  400d90 <strtol@plt>
  4012d3:	41 89 c5             	mov    %eax,%r13d
  4012d6:	eb 2b                	jmp    401303 <main+0x14e>
  4012d8:	c7 05 c6 41 20 00 00 	movl   $0x0,0x2041c6(%rip)        # 6054a8 <notify>
  4012df:	00 00 00 
  4012e2:	eb 1f                	jmp    401303 <main+0x14e>
  4012e4:	0f be d2             	movsbl %dl,%edx
  4012e7:	be 7f 30 40 00       	mov    $0x40307f,%esi
  4012ec:	bf 01 00 00 00       	mov    $0x1,%edi
  4012f1:	b8 00 00 00 00       	mov    $0x0,%eax
  4012f6:	e8 05 fb ff ff       	callq  400e00 <__printf_chk@plt>
  4012fb:	48 8b 3b             	mov    (%rbx),%rdi
  4012fe:	e8 a3 fc ff ff       	callq  400fa6 <usage>
  401303:	48 89 ea             	mov    %rbp,%rdx
  401306:	48 89 de             	mov    %rbx,%rsi
  401309:	44 89 e7             	mov    %r12d,%edi
  40130c:	e8 0f fb ff ff       	callq  400e20 <getopt@plt>
  401311:	89 c2                	mov    %eax,%edx
  401313:	3c ff                	cmp    $0xff,%al
  401315:	0f 85 22 ff ff ff    	jne    40123d <main+0x88>
  40131b:	be 00 00 00 00       	mov    $0x0,%esi
  401320:	44 89 ef             	mov    %r13d,%edi
  401323:	e8 08 fd ff ff       	callq  401030 <initialize_target>
  401328:	83 3d f9 41 20 00 00 	cmpl   $0x0,0x2041f9(%rip)        # 605528 <is_checker>
  40132f:	74 2a                	je     40135b <main+0x1a6>
  401331:	44 3b 35 e8 41 20 00 	cmp    0x2041e8(%rip),%r14d        # 605520 <authkey>
  401338:	74 21                	je     40135b <main+0x1a6>
  40133a:	44 89 f2             	mov    %r14d,%edx
  40133d:	be b8 2f 40 00       	mov    $0x402fb8,%esi
  401342:	bf 01 00 00 00       	mov    $0x1,%edi
  401347:	b8 00 00 00 00       	mov    $0x0,%eax
  40134c:	e8 af fa ff ff       	callq  400e00 <__printf_chk@plt>
  401351:	b8 00 00 00 00       	mov    $0x0,%eax
  401356:	e8 23 07 00 00       	callq  401a7e <check_fail>
  40135b:	8b 15 c3 41 20 00    	mov    0x2041c3(%rip),%edx        # 605524 <cookie>
  401361:	be 92 30 40 00       	mov    $0x403092,%esi
  401366:	bf 01 00 00 00       	mov    $0x1,%edi
  40136b:	b8 00 00 00 00       	mov    $0x0,%eax
  401370:	e8 8b fa ff ff       	callq  400e00 <__printf_chk@plt>
  401375:	48 8b 3d 24 41 20 00 	mov    0x204124(%rip),%rdi        # 6054a0 <buf_offset>
  40137c:	e8 4b 0c 00 00       	callq  401fcc <stable_launch>
  401381:	b8 00 00 00 00       	mov    $0x0,%eax
  401386:	5b                   	pop    %rbx
  401387:	5d                   	pop    %rbp
  401388:	41 5c                	pop    %r12
  40138a:	41 5d                	pop    %r13
  40138c:	41 5e                	pop    %r14
  40138e:	c3                   	retq   

000000000040138f <scramble>:
  40138f:	48 83 ec 38          	sub    $0x38,%rsp
  401393:	64 48 8b 04 25 28 00 	mov    %fs:0x28,%rax
  40139a:	00 00 
  40139c:	48 89 44 24 28       	mov    %rax,0x28(%rsp)
  4013a1:	31 c0                	xor    %eax,%eax
  4013a3:	eb 10                	jmp    4013b5 <scramble+0x26>
  4013a5:	69 d0 2b aa 00 00    	imul   $0xaa2b,%eax,%edx
  4013ab:	01 fa                	add    %edi,%edx
  4013ad:	89 c1                	mov    %eax,%ecx
  4013af:	89 14 8c             	mov    %edx,(%rsp,%rcx,4)
  4013b2:	83 c0 01             	add    $0x1,%eax
  4013b5:	83 f8 09             	cmp    $0x9,%eax
  4013b8:	76 eb                	jbe    4013a5 <scramble+0x16>
  4013ba:	8b 44 24 08          	mov    0x8(%rsp),%eax
  4013be:	69 c0 fc 4c 00 00    	imul   $0x4cfc,%eax,%eax
  4013c4:	89 44 24 08          	mov    %eax,0x8(%rsp)
  4013c8:	8b 44 24 18          	mov    0x18(%rsp),%eax
  4013cc:	69 c0 35 6c 00 00    	imul   $0x6c35,%eax,%eax
  4013d2:	89 44 24 18          	mov    %eax,0x18(%rsp)
  4013d6:	8b 44 24 10          	mov    0x10(%rsp),%eax
  4013da:	69 c0 68 13 00 00    	imul   $0x1368,%eax,%eax
  4013e0:	89 44 24 10          	mov    %eax,0x10(%rsp)
  4013e4:	8b 44 24 10          	mov    0x10(%rsp),%eax
  4013e8:	69 c0 b5 42 00 00    	imul   $0x42b5,%eax,%eax
  4013ee:	89 44 24 10          	mov    %eax,0x10(%rsp)
  4013f2:	8b 44 24 24          	mov    0x24(%rsp),%eax
  4013f6:	69 c0 a9 ba 00 00    	imul   $0xbaa9,%eax,%eax
  4013fc:	89 44 24 24          	mov    %eax,0x24(%rsp)
  401400:	8b 44 24 10          	mov    0x10(%rsp),%eax
  401404:	69 c0 f5 f1 00 00    	imul   $0xf1f5,%eax,%eax
  40140a:	89 44 24 10          	mov    %eax,0x10(%rsp)
  40140e:	8b 44 24 0c          	mov    0xc(%rsp),%eax
  401412:	69 c0 08 25 00 00    	imul   $0x2508,%eax,%eax
  401418:	89 44 24 0c          	mov    %eax,0xc(%rsp)
  40141c:	8b 44 24 1c          	mov    0x1c(%rsp),%eax
  401420:	69 c0 49 2e 00 00    	imul   $0x2e49,%eax,%eax
  401426:	89 44 24 1c          	mov    %eax,0x1c(%rsp)
  40142a:	8b 44 24 0c          	mov    0xc(%rsp),%eax
  40142e:	69 c0 3e 76 00 00    	imul   $0x763e,%eax,%eax
  401434:	89 44 24 0c          	mov    %eax,0xc(%rsp)
  401438:	8b 44 24 20          	mov    0x20(%rsp),%eax
  40143c:	69 c0 82 5c 00 00    	imul   $0x5c82,%eax,%eax
  401442:	89 44 24 20          	mov    %eax,0x20(%rsp)
  401446:	8b 44 24 0c          	mov    0xc(%rsp),%eax
  40144a:	69 c0 c4 69 00 00    	imul   $0x69c4,%eax,%eax
  401450:	89 44 24 0c          	mov    %eax,0xc(%rsp)
  401454:	8b 44 24 08          	mov    0x8(%rsp),%eax
  401458:	69 c0 54 bd 00 00    	imul   $0xbd54,%eax,%eax
  40145e:	89 44 24 08          	mov    %eax,0x8(%rsp)
  401462:	8b 44 24 20          	mov    0x20(%rsp),%eax
  401466:	69 c0 5d 2a 00 00    	imul   $0x2a5d,%eax,%eax
  40146c:	89 44 24 20          	mov    %eax,0x20(%rsp)
  401470:	8b 44 24 0c          	mov    0xc(%rsp),%eax
  401474:	69 c0 01 d1 00 00    	imul   $0xd101,%eax,%eax
  40147a:	89 44 24 0c          	mov    %eax,0xc(%rsp)
  40147e:	8b 44 24 08          	mov    0x8(%rsp),%eax
  401482:	69 c0 89 b3 00 00    	imul   $0xb389,%eax,%eax
  401488:	89 44 24 08          	mov    %eax,0x8(%rsp)
  40148c:	8b 44 24 10          	mov    0x10(%rsp),%eax
  401490:	69 c0 d2 4a 00 00    	imul   $0x4ad2,%eax,%eax
  401496:	89 44 24 10          	mov    %eax,0x10(%rsp)
  40149a:	8b 44 24 24          	mov    0x24(%rsp),%eax
  40149e:	69 c0 b0 74 00 00    	imul   $0x74b0,%eax,%eax
  4014a4:	89 44 24 24          	mov    %eax,0x24(%rsp)
  4014a8:	8b 44 24 10          	mov    0x10(%rsp),%eax
  4014ac:	69 c0 8c 08 00 00    	imul   $0x88c,%eax,%eax
  4014b2:	89 44 24 10          	mov    %eax,0x10(%rsp)
  4014b6:	8b 44 24 1c          	mov    0x1c(%rsp),%eax
  4014ba:	69 c0 cd 27 00 00    	imul   $0x27cd,%eax,%eax
  4014c0:	89 44 24 1c          	mov    %eax,0x1c(%rsp)
  4014c4:	8b 44 24 20          	mov    0x20(%rsp),%eax
  4014c8:	69 c0 06 38 00 00    	imul   $0x3806,%eax,%eax
  4014ce:	89 44 24 20          	mov    %eax,0x20(%rsp)
  4014d2:	8b 44 24 1c          	mov    0x1c(%rsp),%eax
  4014d6:	69 c0 36 45 00 00    	imul   $0x4536,%eax,%eax
  4014dc:	89 44 24 1c          	mov    %eax,0x1c(%rsp)
  4014e0:	8b 44 24 18          	mov    0x18(%rsp),%eax
  4014e4:	69 c0 c1 9a 00 00    	imul   $0x9ac1,%eax,%eax
  4014ea:	89 44 24 18          	mov    %eax,0x18(%rsp)
  4014ee:	8b 44 24 08          	mov    0x8(%rsp),%eax
  4014f2:	69 c0 02 7a 00 00    	imul   $0x7a02,%eax,%eax
  4014f8:	89 44 24 08          	mov    %eax,0x8(%rsp)
  4014fc:	8b 04 24             	mov    (%rsp),%eax
  4014ff:	69 c0 15 6f 00 00    	imul   $0x6f15,%eax,%eax
  401505:	89 04 24             	mov    %eax,(%rsp)
  401508:	8b 44 24 10          	mov    0x10(%rsp),%eax
  40150c:	69 c0 ed 25 00 00    	imul   $0x25ed,%eax,%eax
  401512:	89 44 24 10          	mov    %eax,0x10(%rsp)
  401516:	8b 44 24 14          	mov    0x14(%rsp),%eax
  40151a:	69 c0 61 22 00 00    	imul   $0x2261,%eax,%eax
  401520:	89 44 24 14          	mov    %eax,0x14(%rsp)
  401524:	8b 44 24 04          	mov    0x4(%rsp),%eax
  401528:	69 c0 d3 82 00 00    	imul   $0x82d3,%eax,%eax
  40152e:	89 44 24 04          	mov    %eax,0x4(%rsp)
  401532:	8b 44 24 10          	mov    0x10(%rsp),%eax
  401536:	69 c0 a8 79 00 00    	imul   $0x79a8,%eax,%eax
  40153c:	89 44 24 10          	mov    %eax,0x10(%rsp)
  401540:	8b 44 24 0c          	mov    0xc(%rsp),%eax
  401544:	69 c0 28 95 00 00    	imul   $0x9528,%eax,%eax
  40154a:	89 44 24 0c          	mov    %eax,0xc(%rsp)
  40154e:	8b 44 24 0c          	mov    0xc(%rsp),%eax
  401552:	69 c0 d7 4d 00 00    	imul   $0x4dd7,%eax,%eax
  401558:	89 44 24 0c          	mov    %eax,0xc(%rsp)
  40155c:	8b 44 24 0c          	mov    0xc(%rsp),%eax
  401560:	69 c0 9b 3a 00 00    	imul   $0x3a9b,%eax,%eax
  401566:	89 44 24 0c          	mov    %eax,0xc(%rsp)
  40156a:	8b 44 24 04          	mov    0x4(%rsp),%eax
  40156e:	69 c0 37 49 00 00    	imul   $0x4937,%eax,%eax
  401574:	89 44 24 04          	mov    %eax,0x4(%rsp)
  401578:	8b 04 24             	mov    (%rsp),%eax
  40157b:	69 c0 b1 4f 00 00    	imul   $0x4fb1,%eax,%eax
  401581:	89 04 24             	mov    %eax,(%rsp)
  401584:	8b 44 24 20          	mov    0x20(%rsp),%eax
  401588:	69 c0 63 37 00 00    	imul   $0x3763,%eax,%eax
  40158e:	89 44 24 20          	mov    %eax,0x20(%rsp)
  401592:	8b 44 24 1c          	mov    0x1c(%rsp),%eax
  401596:	69 c0 05 9d 00 00    	imul   $0x9d05,%eax,%eax
  40159c:	89 44 24 1c          	mov    %eax,0x1c(%rsp)
  4015a0:	8b 44 24 18          	mov    0x18(%rsp),%eax
  4015a4:	69 c0 f5 59 00 00    	imul   $0x59f5,%eax,%eax
  4015aa:	89 44 24 18          	mov    %eax,0x18(%rsp)
  4015ae:	8b 44 24 10          	mov    0x10(%rsp),%eax
  4015b2:	69 c0 64 99 00 00    	imul   $0x9964,%eax,%eax
  4015b8:	89 44 24 10          	mov    %eax,0x10(%rsp)
  4015bc:	8b 44 24 18          	mov    0x18(%rsp),%eax
  4015c0:	69 c0 7a 4c 00 00    	imul   $0x4c7a,%eax,%eax
  4015c6:	89 44 24 18          	mov    %eax,0x18(%rsp)
  4015ca:	8b 44 24 08          	mov    0x8(%rsp),%eax
  4015ce:	69 c0 c0 bd 00 00    	imul   $0xbdc0,%eax,%eax
  4015d4:	89 44 24 08          	mov    %eax,0x8(%rsp)
  4015d8:	8b 44 24 14          	mov    0x14(%rsp),%eax
  4015dc:	69 c0 a7 03 00 00    	imul   $0x3a7,%eax,%eax
  4015e2:	89 44 24 14          	mov    %eax,0x14(%rsp)
  4015e6:	8b 44 24 18          	mov    0x18(%rsp),%eax
  4015ea:	69 c0 28 87 00 00    	imul   $0x8728,%eax,%eax
  4015f0:	89 44 24 18          	mov    %eax,0x18(%rsp)
  4015f4:	8b 44 24 14          	mov    0x14(%rsp),%eax
  4015f8:	69 c0 5f 73 00 00    	imul   $0x735f,%eax,%eax
  4015fe:	89 44 24 14          	mov    %eax,0x14(%rsp)
  401602:	8b 44 24 04          	mov    0x4(%rsp),%eax
  401606:	69 c0 bd 05 00 00    	imul   $0x5bd,%eax,%eax
  40160c:	89 44 24 04          	mov    %eax,0x4(%rsp)
  401610:	8b 44 24 0c          	mov    0xc(%rsp),%eax
  401614:	69 c0 2b b7 00 00    	imul   $0xb72b,%eax,%eax
  40161a:	89 44 24 0c          	mov    %eax,0xc(%rsp)
  40161e:	8b 44 24 20          	mov    0x20(%rsp),%eax
  401622:	69 c0 b0 37 00 00    	imul   $0x37b0,%eax,%eax
  401628:	89 44 24 20          	mov    %eax,0x20(%rsp)
  40162c:	8b 44 24 0c          	mov    0xc(%rsp),%eax
  401630:	69 c0 97 e3 00 00    	imul   $0xe397,%eax,%eax
  401636:	89 44 24 0c          	mov    %eax,0xc(%rsp)
  40163a:	8b 44 24 18          	mov    0x18(%rsp),%eax
  40163e:	69 c0 ab 9d 00 00    	imul   $0x9dab,%eax,%eax
  401644:	89 44 24 18          	mov    %eax,0x18(%rsp)
  401648:	8b 44 24 18          	mov    0x18(%rsp),%eax
  40164c:	69 c0 96 21 00 00    	imul   $0x2196,%eax,%eax
  401652:	89 44 24 18          	mov    %eax,0x18(%rsp)
  401656:	8b 44 24 04          	mov    0x4(%rsp),%eax
  40165a:	69 c0 92 7e 00 00    	imul   $0x7e92,%eax,%eax
  401660:	89 44 24 04          	mov    %eax,0x4(%rsp)
  401664:	8b 44 24 18          	mov    0x18(%rsp),%eax
  401668:	69 c0 db 64 00 00    	imul   $0x64db,%eax,%eax
  40166e:	89 44 24 18          	mov    %eax,0x18(%rsp)
  401672:	8b 44 24 18          	mov    0x18(%rsp),%eax
  401676:	69 c0 62 c8 00 00    	imul   $0xc862,%eax,%eax
  40167c:	89 44 24 18          	mov    %eax,0x18(%rsp)
  401680:	8b 44 24 18          	mov    0x18(%rsp),%eax
  401684:	69 c0 d4 fd 00 00    	imul   $0xfdd4,%eax,%eax
  40168a:	89 44 24 18          	mov    %eax,0x18(%rsp)
  40168e:	8b 04 24             	mov    (%rsp),%eax
  401691:	69 c0 86 b3 00 00    	imul   $0xb386,%eax,%eax
  401697:	89 04 24             	mov    %eax,(%rsp)
  40169a:	8b 44 24 20          	mov    0x20(%rsp),%eax
  40169e:	69 c0 2c 75 00 00    	imul   $0x752c,%eax,%eax
  4016a4:	89 44 24 20          	mov    %eax,0x20(%rsp)
  4016a8:	8b 44 24 04          	mov    0x4(%rsp),%eax
  4016ac:	69 c0 de 05 00 00    	imul   $0x5de,%eax,%eax
  4016b2:	89 44 24 04          	mov    %eax,0x4(%rsp)
  4016b6:	8b 04 24             	mov    (%rsp),%eax
  4016b9:	69 c0 f3 54 00 00    	imul   $0x54f3,%eax,%eax
  4016bf:	89 04 24             	mov    %eax,(%rsp)
  4016c2:	8b 44 24 20          	mov    0x20(%rsp),%eax
  4016c6:	69 c0 db 9e 00 00    	imul   $0x9edb,%eax,%eax
  4016cc:	89 44 24 20          	mov    %eax,0x20(%rsp)
  4016d0:	8b 44 24 04          	mov    0x4(%rsp),%eax
  4016d4:	69 c0 01 97 00 00    	imul   $0x9701,%eax,%eax
  4016da:	89 44 24 04          	mov    %eax,0x4(%rsp)
  4016de:	8b 44 24 20          	mov    0x20(%rsp),%eax
  4016e2:	69 c0 59 b5 00 00    	imul   $0xb559,%eax,%eax
  4016e8:	89 44 24 20          	mov    %eax,0x20(%rsp)
  4016ec:	8b 44 24 1c          	mov    0x1c(%rsp),%eax
  4016f0:	69 c0 7e 3f 00 00    	imul   $0x3f7e,%eax,%eax
  4016f6:	89 44 24 1c          	mov    %eax,0x1c(%rsp)
  4016fa:	8b 44 24 0c          	mov    0xc(%rsp),%eax
  4016fe:	69 c0 2e 53 00 00    	imul   $0x532e,%eax,%eax
  401704:	89 44 24 0c          	mov    %eax,0xc(%rsp)
  401708:	8b 44 24 08          	mov    0x8(%rsp),%eax
  40170c:	69 c0 54 5f 00 00    	imul   $0x5f54,%eax,%eax
  401712:	89 44 24 08          	mov    %eax,0x8(%rsp)
  401716:	8b 44 24 10          	mov    0x10(%rsp),%eax
  40171a:	69 c0 e4 4f 00 00    	imul   $0x4fe4,%eax,%eax
  401720:	89 44 24 10          	mov    %eax,0x10(%rsp)
  401724:	8b 44 24 20          	mov    0x20(%rsp),%eax
  401728:	69 c0 36 de 00 00    	imul   $0xde36,%eax,%eax
  40172e:	89 44 24 20          	mov    %eax,0x20(%rsp)
  401732:	8b 44 24 1c          	mov    0x1c(%rsp),%eax
  401736:	69 c0 e3 d9 00 00    	imul   $0xd9e3,%eax,%eax
  40173c:	89 44 24 1c          	mov    %eax,0x1c(%rsp)
  401740:	8b 44 24 1c          	mov    0x1c(%rsp),%eax
  401744:	69 c0 0e ea 00 00    	imul   $0xea0e,%eax,%eax
  40174a:	89 44 24 1c          	mov    %eax,0x1c(%rsp)
  40174e:	8b 04 24             	mov    (%rsp),%eax
  401751:	69 c0 e1 01 00 00    	imul   $0x1e1,%eax,%eax
  401757:	89 04 24             	mov    %eax,(%rsp)
  40175a:	8b 44 24 14          	mov    0x14(%rsp),%eax
  40175e:	69 c0 0b 04 00 00    	imul   $0x40b,%eax,%eax
  401764:	89 44 24 14          	mov    %eax,0x14(%rsp)
  401768:	8b 44 24 20          	mov    0x20(%rsp),%eax
  40176c:	69 c0 31 32 00 00    	imul   $0x3231,%eax,%eax
  401772:	89 44 24 20          	mov    %eax,0x20(%rsp)
  401776:	8b 44 24 1c          	mov    0x1c(%rsp),%eax
  40177a:	69 c0 ad 26 00 00    	imul   $0x26ad,%eax,%eax
  401780:	89 44 24 1c          	mov    %eax,0x1c(%rsp)
  401784:	8b 44 24 04          	mov    0x4(%rsp),%eax
  401788:	69 c0 0b f2 00 00    	imul   $0xf20b,%eax,%eax
  40178e:	89 44 24 04          	mov    %eax,0x4(%rsp)
  401792:	8b 44 24 04          	mov    0x4(%rsp),%eax
  401796:	69 c0 16 c5 00 00    	imul   $0xc516,%eax,%eax
  40179c:	89 44 24 04          	mov    %eax,0x4(%rsp)
  4017a0:	8b 44 24 1c          	mov    0x1c(%rsp),%eax
  4017a4:	69 c0 f3 43 00 00    	imul   $0x43f3,%eax,%eax
  4017aa:	89 44 24 1c          	mov    %eax,0x1c(%rsp)
  4017ae:	8b 44 24 04          	mov    0x4(%rsp),%eax
  4017b2:	69 c0 80 35 00 00    	imul   $0x3580,%eax,%eax
  4017b8:	89 44 24 04          	mov    %eax,0x4(%rsp)
  4017bc:	8b 44 24 20          	mov    0x20(%rsp),%eax
  4017c0:	69 c0 44 aa 00 00    	imul   $0xaa44,%eax,%eax
  4017c6:	89 44 24 20          	mov    %eax,0x20(%rsp)
  4017ca:	8b 44 24 18          	mov    0x18(%rsp),%eax
  4017ce:	69 c0 56 e6 00 00    	imul   $0xe656,%eax,%eax
  4017d4:	89 44 24 18          	mov    %eax,0x18(%rsp)
  4017d8:	8b 44 24 04          	mov    0x4(%rsp),%eax
  4017dc:	69 c0 14 98 00 00    	imul   $0x9814,%eax,%eax
  4017e2:	89 44 24 04          	mov    %eax,0x4(%rsp)
  4017e6:	8b 44 24 10          	mov    0x10(%rsp),%eax
  4017ea:	69 c0 4c ee 00 00    	imul   $0xee4c,%eax,%eax
  4017f0:	89 44 24 10          	mov    %eax,0x10(%rsp)
  4017f4:	ba 00 00 00 00       	mov    $0x0,%edx
  4017f9:	b8 00 00 00 00       	mov    $0x0,%eax
  4017fe:	eb 0a                	jmp    40180a <scramble+0x47b>
  401800:	89 d1                	mov    %edx,%ecx
  401802:	8b 0c 8c             	mov    (%rsp,%rcx,4),%ecx
  401805:	01 c8                	add    %ecx,%eax
  401807:	83 c2 01             	add    $0x1,%edx
  40180a:	83 fa 09             	cmp    $0x9,%edx
  40180d:	76 f1                	jbe    401800 <scramble+0x471>
  40180f:	48 8b 74 24 28       	mov    0x28(%rsp),%rsi
  401814:	64 48 33 34 25 28 00 	xor    %fs:0x28,%rsi
  40181b:	00 00 
  40181d:	74 05                	je     401824 <scramble+0x495>
  40181f:	e8 cc f4 ff ff       	callq  400cf0 <__stack_chk_fail@plt>
  401824:	48 83 c4 38          	add    $0x38,%rsp
  401828:	c3                   	retq   

0000000000401829 <getbuf>:
  401829:	48 83 ec 28          	sub    $0x28,%rsp
  40182d:	48 89 e7             	mov    %rsp,%rdi
  401830:	e8 7e 02 00 00       	callq  401ab3 <Gets>
  401835:	b8 01 00 00 00       	mov    $0x1,%eax
  40183a:	48 83 c4 28          	add    $0x28,%rsp
  40183e:	c3                   	retq   

000000000040183f <touch1>:
  40183f:	48 83 ec 08          	sub    $0x8,%rsp
  401843:	c7 05 cf 3c 20 00 01 	movl   $0x1,0x203ccf(%rip)        # 60551c <vlevel>
  40184a:	00 00 00 
  40184d:	bf 2c 34 40 00       	mov    $0x40342c,%edi
  401852:	e8 79 f4 ff ff       	callq  400cd0 <puts@plt>
  401857:	bf 01 00 00 00       	mov    $0x1,%edi
  40185c:	e8 97 04 00 00       	callq  401cf8 <validate>
  401861:	bf 00 00 00 00       	mov    $0x0,%edi
  401866:	e8 e5 f5 ff ff       	callq  400e50 <exit@plt>

000000000040186b <touch2>:
  40186b:	48 83 ec 08          	sub    $0x8,%rsp
  40186f:	89 fa                	mov    %edi,%edx
  401871:	c7 05 a1 3c 20 00 02 	movl   $0x2,0x203ca1(%rip)        # 60551c <vlevel>
  401878:	00 00 00 
  40187b:	39 3d a3 3c 20 00    	cmp    %edi,0x203ca3(%rip)        # 605524 <cookie>
  401881:	75 20                	jne    4018a3 <touch2+0x38>
  401883:	be 50 34 40 00       	mov    $0x403450,%esi
  401888:	bf 01 00 00 00       	mov    $0x1,%edi
  40188d:	b8 00 00 00 00       	mov    $0x0,%eax
  401892:	e8 69 f5 ff ff       	callq  400e00 <__printf_chk@plt>
  401897:	bf 02 00 00 00       	mov    $0x2,%edi
  40189c:	e8 57 04 00 00       	callq  401cf8 <validate>
  4018a1:	eb 1e                	jmp    4018c1 <touch2+0x56>
  4018a3:	be 78 34 40 00       	mov    $0x403478,%esi
  4018a8:	bf 01 00 00 00       	mov    $0x1,%edi
  4018ad:	b8 00 00 00 00       	mov    $0x0,%eax
  4018b2:	e8 49 f5 ff ff       	callq  400e00 <__printf_chk@plt>
  4018b7:	bf 02 00 00 00       	mov    $0x2,%edi
  4018bc:	e8 f9 04 00 00       	callq  401dba <fail>
  4018c1:	bf 00 00 00 00       	mov    $0x0,%edi
  4018c6:	e8 85 f5 ff ff       	callq  400e50 <exit@plt>

00000000004018cb <hexmatch>:
  4018cb:	41 54                	push   %r12
  4018cd:	55                   	push   %rbp
  4018ce:	53                   	push   %rbx
  4018cf:	48 83 c4 80          	add    $0xffffffffffffff80,%rsp
  4018d3:	89 fd                	mov    %edi,%ebp
  4018d5:	48 89 f3             	mov    %rsi,%rbx
  4018d8:	64 48 8b 04 25 28 00 	mov    %fs:0x28,%rax
  4018df:	00 00 
  4018e1:	48 89 44 24 78       	mov    %rax,0x78(%rsp)
  4018e6:	31 c0                	xor    %eax,%eax
  4018e8:	e8 d3 f4 ff ff       	callq  400dc0 <random@plt>
  4018ed:	48 89 c1             	mov    %rax,%rcx
  4018f0:	48 ba 0b d7 a3 70 3d 	movabs $0xa3d70a3d70a3d70b,%rdx
  4018f7:	0a d7 a3 
  4018fa:	48 f7 ea             	imul   %rdx
  4018fd:	48 01 ca             	add    %rcx,%rdx
  401900:	48 c1 fa 06          	sar    $0x6,%rdx
  401904:	48 89 c8             	mov    %rcx,%rax
  401907:	48 c1 f8 3f          	sar    $0x3f,%rax
  40190b:	48 29 c2             	sub    %rax,%rdx
  40190e:	48 8d 04 92          	lea    (%rdx,%rdx,4),%rax
  401912:	48 8d 14 80          	lea    (%rax,%rax,4),%rdx
  401916:	48 8d 04 95 00 00 00 	lea    0x0(,%rdx,4),%rax
  40191d:	00 
  40191e:	48 29 c1             	sub    %rax,%rcx
  401921:	4c 8d 24 0c          	lea    (%rsp,%rcx,1),%r12
  401925:	41 89 e8             	mov    %ebp,%r8d
  401928:	b9 49 34 40 00       	mov    $0x403449,%ecx
  40192d:	48 c7 c2 ff ff ff ff 	mov    $0xffffffffffffffff,%rdx
  401934:	be 01 00 00 00       	mov    $0x1,%esi
  401939:	4c 89 e7             	mov    %r12,%rdi
  40193c:	b8 00 00 00 00       	mov    $0x0,%eax
  401941:	e8 3a f5 ff ff       	callq  400e80 <__sprintf_chk@plt>
  401946:	ba 09 00 00 00       	mov    $0x9,%edx
  40194b:	4c 89 e6             	mov    %r12,%rsi
  40194e:	48 89 df             	mov    %rbx,%rdi
  401951:	e8 5a f3 ff ff       	callq  400cb0 <strncmp@plt>
  401956:	85 c0                	test   %eax,%eax
  401958:	0f 94 c0             	sete   %al
  40195b:	48 8b 5c 24 78       	mov    0x78(%rsp),%rbx
  401960:	64 48 33 1c 25 28 00 	xor    %fs:0x28,%rbx
  401967:	00 00 
  401969:	74 05                	je     401970 <hexmatch+0xa5>
  40196b:	e8 80 f3 ff ff       	callq  400cf0 <__stack_chk_fail@plt>
  401970:	0f b6 c0             	movzbl %al,%eax
  401973:	48 83 ec 80          	sub    $0xffffffffffffff80,%rsp
  401977:	5b                   	pop    %rbx
  401978:	5d                   	pop    %rbp
  401979:	41 5c                	pop    %r12
  40197b:	c3                   	retq   

000000000040197c <touch3>:
  40197c:	53                   	push   %rbx
  40197d:	48 89 fb             	mov    %rdi,%rbx
  401980:	c7 05 92 3b 20 00 03 	movl   $0x3,0x203b92(%rip)        # 60551c <vlevel>
  401987:	00 00 00 
  40198a:	48 89 fe             	mov    %rdi,%rsi
  40198d:	8b 3d 91 3b 20 00    	mov    0x203b91(%rip),%edi        # 605524 <cookie>
  401993:	e8 33 ff ff ff       	callq  4018cb <hexmatch>
  401998:	85 c0                	test   %eax,%eax
  40199a:	74 23                	je     4019bf <touch3+0x43>
  40199c:	48 89 da             	mov    %rbx,%rdx
  40199f:	be a0 34 40 00       	mov    $0x4034a0,%esi
  4019a4:	bf 01 00 00 00       	mov    $0x1,%edi
  4019a9:	b8 00 00 00 00       	mov    $0x0,%eax
  4019ae:	e8 4d f4 ff ff       	callq  400e00 <__printf_chk@plt>
  4019b3:	bf 03 00 00 00       	mov    $0x3,%edi
  4019b8:	e8 3b 03 00 00       	callq  401cf8 <validate>
  4019bd:	eb 21                	jmp    4019e0 <touch3+0x64>
  4019bf:	48 89 da             	mov    %rbx,%rdx
  4019c2:	be c8 34 40 00       	mov    $0x4034c8,%esi
  4019c7:	bf 01 00 00 00       	mov    $0x1,%edi
  4019cc:	b8 00 00 00 00       	mov    $0x0,%eax
  4019d1:	e8 2a f4 ff ff       	callq  400e00 <__printf_chk@plt>
  4019d6:	bf 03 00 00 00       	mov    $0x3,%edi
  4019db:	e8 da 03 00 00       	callq  401dba <fail>
  4019e0:	bf 00 00 00 00       	mov    $0x0,%edi
  4019e5:	e8 66 f4 ff ff       	callq  400e50 <exit@plt>

00000000004019ea <test>:
  4019ea:	48 83 ec 08          	sub    $0x8,%rsp
  4019ee:	b8 00 00 00 00       	mov    $0x0,%eax
  4019f3:	e8 31 fe ff ff       	callq  401829 <getbuf>
  4019f8:	89 c2                	mov    %eax,%edx
  4019fa:	be f0 34 40 00       	mov    $0x4034f0,%esi
  4019ff:	bf 01 00 00 00       	mov    $0x1,%edi
  401a04:	b8 00 00 00 00       	mov    $0x0,%eax
  401a09:	e8 f2 f3 ff ff       	callq  400e00 <__printf_chk@plt>
  401a0e:	48 83 c4 08          	add    $0x8,%rsp
  401a12:	c3                   	retq   

0000000000401a13 <save_char>:
  401a13:	8b 05 2b 47 20 00    	mov    0x20472b(%rip),%eax        # 606144 <gets_cnt>
  401a19:	3d ff 03 00 00       	cmp    $0x3ff,%eax
  401a1e:	7f 49                	jg     401a69 <save_char+0x56>
  401a20:	8d 14 40             	lea    (%rax,%rax,2),%edx
  401a23:	89 f9                	mov    %edi,%ecx
  401a25:	c0 e9 04             	shr    $0x4,%cl
  401a28:	83 e1 0f             	and    $0xf,%ecx
  401a2b:	0f b6 b1 10 38 40 00 	movzbl 0x403810(%rcx),%esi
  401a32:	48 63 ca             	movslq %edx,%rcx
  401a35:	40 88 b1 40 55 60 00 	mov    %sil,0x605540(%rcx)
  401a3c:	8d 4a 01             	lea    0x1(%rdx),%ecx
  401a3f:	83 e7 0f             	and    $0xf,%edi
  401a42:	0f b6 b7 10 38 40 00 	movzbl 0x403810(%rdi),%esi
  401a49:	48 63 c9             	movslq %ecx,%rcx
  401a4c:	40 88 b1 40 55 60 00 	mov    %sil,0x605540(%rcx)
  401a53:	83 c2 02             	add    $0x2,%edx
  401a56:	48 63 d2             	movslq %edx,%rdx
  401a59:	c6 82 40 55 60 00 20 	movb   $0x20,0x605540(%rdx)
  401a60:	83 c0 01             	add    $0x1,%eax
  401a63:	89 05 db 46 20 00    	mov    %eax,0x2046db(%rip)        # 606144 <gets_cnt>
  401a69:	f3 c3                	repz retq 

0000000000401a6b <save_term>:
  401a6b:	8b 05 d3 46 20 00    	mov    0x2046d3(%rip),%eax        # 606144 <gets_cnt>
  401a71:	8d 04 40             	lea    (%rax,%rax,2),%eax
  401a74:	48 98                	cltq   
  401a76:	c6 80 40 55 60 00 00 	movb   $0x0,0x605540(%rax)
  401a7d:	c3                   	retq   

0000000000401a7e <check_fail>:
  401a7e:	48 83 ec 08          	sub    $0x8,%rsp
  401a82:	0f be 15 bf 46 20 00 	movsbl 0x2046bf(%rip),%edx        # 606148 <target_prefix>
  401a89:	41 b8 40 55 60 00    	mov    $0x605540,%r8d
  401a8f:	8b 0d 83 3a 20 00    	mov    0x203a83(%rip),%ecx        # 605518 <check_level>
  401a95:	be 13 35 40 00       	mov    $0x403513,%esi
  401a9a:	bf 01 00 00 00       	mov    $0x1,%edi
  401a9f:	b8 00 00 00 00       	mov    $0x0,%eax
  401aa4:	e8 57 f3 ff ff       	callq  400e00 <__printf_chk@plt>
  401aa9:	bf 01 00 00 00       	mov    $0x1,%edi
  401aae:	e8 9d f3 ff ff       	callq  400e50 <exit@plt>

0000000000401ab3 <Gets>:
  401ab3:	41 54                	push   %r12
  401ab5:	55                   	push   %rbp
  401ab6:	53                   	push   %rbx
  401ab7:	49 89 fc             	mov    %rdi,%r12
  401aba:	c7 05 80 46 20 00 00 	movl   $0x0,0x204680(%rip)        # 606144 <gets_cnt>
  401ac1:	00 00 00 
  401ac4:	48 89 fb             	mov    %rdi,%rbx
  401ac7:	eb 11                	jmp    401ada <Gets+0x27>
  401ac9:	48 8d 6b 01          	lea    0x1(%rbx),%rbp
  401acd:	88 03                	mov    %al,(%rbx)
  401acf:	0f b6 f8             	movzbl %al,%edi
  401ad2:	e8 3c ff ff ff       	callq  401a13 <save_char>
  401ad7:	48 89 eb             	mov    %rbp,%rbx
  401ada:	48 8b 3d 2f 3a 20 00 	mov    0x203a2f(%rip),%rdi        # 605510 <infile>
  401ae1:	e8 ea f2 ff ff       	callq  400dd0 <_IO_getc@plt>
  401ae6:	83 f8 ff             	cmp    $0xffffffff,%eax
  401ae9:	74 05                	je     401af0 <Gets+0x3d>
  401aeb:	83 f8 0a             	cmp    $0xa,%eax
  401aee:	75 d9                	jne    401ac9 <Gets+0x16>
  401af0:	c6 03 00             	movb   $0x0,(%rbx)
  401af3:	b8 00 00 00 00       	mov    $0x0,%eax
  401af8:	e8 6e ff ff ff       	callq  401a6b <save_term>
  401afd:	4c 89 e0             	mov    %r12,%rax
  401b00:	5b                   	pop    %rbx
  401b01:	5d                   	pop    %rbp
  401b02:	41 5c                	pop    %r12
  401b04:	c3                   	retq   

0000000000401b05 <notify_server>:
  401b05:	53                   	push   %rbx
  401b06:	48 81 ec 10 40 00 00 	sub    $0x4010,%rsp
  401b0d:	64 48 8b 04 25 28 00 	mov    %fs:0x28,%rax
  401b14:	00 00 
  401b16:	48 89 84 24 08 40 00 	mov    %rax,0x4008(%rsp)
  401b1d:	00 
  401b1e:	31 c0                	xor    %eax,%eax
  401b20:	83 3d 01 3a 20 00 00 	cmpl   $0x0,0x203a01(%rip)        # 605528 <is_checker>
  401b27:	0f 85 aa 01 00 00    	jne    401cd7 <notify_server+0x1d2>
  401b2d:	89 fb                	mov    %edi,%ebx
  401b2f:	8b 05 0f 46 20 00    	mov    0x20460f(%rip),%eax        # 606144 <gets_cnt>
  401b35:	83 c0 64             	add    $0x64,%eax
  401b38:	3d 00 20 00 00       	cmp    $0x2000,%eax
  401b3d:	7e 1e                	jle    401b5d <notify_server+0x58>
  401b3f:	be 48 36 40 00       	mov    $0x403648,%esi
  401b44:	bf 01 00 00 00       	mov    $0x1,%edi
  401b49:	b8 00 00 00 00       	mov    $0x0,%eax
  401b4e:	e8 ad f2 ff ff       	callq  400e00 <__printf_chk@plt>
  401b53:	bf 01 00 00 00       	mov    $0x1,%edi
  401b58:	e8 f3 f2 ff ff       	callq  400e50 <exit@plt>
  401b5d:	0f be 05 e4 45 20 00 	movsbl 0x2045e4(%rip),%eax        # 606148 <target_prefix>
  401b64:	83 3d 3d 39 20 00 00 	cmpl   $0x0,0x20393d(%rip)        # 6054a8 <notify>
  401b6b:	74 08                	je     401b75 <notify_server+0x70>
  401b6d:	8b 15 ad 39 20 00    	mov    0x2039ad(%rip),%edx        # 605520 <authkey>
  401b73:	eb 05                	jmp    401b7a <notify_server+0x75>
  401b75:	ba ff ff ff ff       	mov    $0xffffffff,%edx
  401b7a:	85 db                	test   %ebx,%ebx
  401b7c:	74 08                	je     401b86 <notify_server+0x81>
  401b7e:	41 b9 29 35 40 00    	mov    $0x403529,%r9d
  401b84:	eb 06                	jmp    401b8c <notify_server+0x87>
  401b86:	41 b9 2e 35 40 00    	mov    $0x40352e,%r9d
  401b8c:	68 40 55 60 00       	pushq  $0x605540
  401b91:	56                   	push   %rsi
  401b92:	50                   	push   %rax
  401b93:	52                   	push   %rdx
  401b94:	44 8b 05 cd 35 20 00 	mov    0x2035cd(%rip),%r8d        # 605168 <target_id>
  401b9b:	b9 33 35 40 00       	mov    $0x403533,%ecx
  401ba0:	ba 00 20 00 00       	mov    $0x2000,%edx
  401ba5:	be 01 00 00 00       	mov    $0x1,%esi
  401baa:	48 8d 7c 24 20       	lea    0x20(%rsp),%rdi
  401baf:	b8 00 00 00 00       	mov    $0x0,%eax
  401bb4:	e8 c7 f2 ff ff       	callq  400e80 <__sprintf_chk@plt>
  401bb9:	48 83 c4 20          	add    $0x20,%rsp
  401bbd:	83 3d e4 38 20 00 00 	cmpl   $0x0,0x2038e4(%rip)        # 6054a8 <notify>
  401bc4:	0f 84 81 00 00 00    	je     401c4b <notify_server+0x146>
  401bca:	85 db                	test   %ebx,%ebx
  401bcc:	74 6e                	je     401c3c <notify_server+0x137>
  401bce:	4c 8d 8c 24 00 20 00 	lea    0x2000(%rsp),%r9
  401bd5:	00 
  401bd6:	41 b8 00 00 00 00    	mov    $0x0,%r8d
  401bdc:	48 89 e1             	mov    %rsp,%rcx
  401bdf:	48 8b 15 8a 35 20 00 	mov    0x20358a(%rip),%rdx        # 605170 <lab>
  401be6:	48 8b 35 8b 35 20 00 	mov    0x20358b(%rip),%rsi        # 605178 <course>
  401bed:	48 8b 3d 6c 35 20 00 	mov    0x20356c(%rip),%rdi        # 605160 <user_id>
  401bf4:	e8 ef 10 00 00       	callq  402ce8 <driver_post>
  401bf9:	85 c0                	test   %eax,%eax
  401bfb:	79 26                	jns    401c23 <notify_server+0x11e>
  401bfd:	48 8d 94 24 00 20 00 	lea    0x2000(%rsp),%rdx
  401c04:	00 
  401c05:	be 4f 35 40 00       	mov    $0x40354f,%esi
  401c0a:	bf 01 00 00 00       	mov    $0x1,%edi
  401c0f:	b8 00 00 00 00       	mov    $0x0,%eax
  401c14:	e8 e7 f1 ff ff       	callq  400e00 <__printf_chk@plt>
  401c19:	bf 01 00 00 00       	mov    $0x1,%edi
  401c1e:	e8 2d f2 ff ff       	callq  400e50 <exit@plt>
  401c23:	bf 78 36 40 00       	mov    $0x403678,%edi
  401c28:	e8 a3 f0 ff ff       	callq  400cd0 <puts@plt>
  401c2d:	bf 5b 35 40 00       	mov    $0x40355b,%edi
  401c32:	e8 99 f0 ff ff       	callq  400cd0 <puts@plt>
  401c37:	e9 9b 00 00 00       	jmpq   401cd7 <notify_server+0x1d2>
  401c3c:	bf 65 35 40 00       	mov    $0x403565,%edi
  401c41:	e8 8a f0 ff ff       	callq  400cd0 <puts@plt>
  401c46:	e9 8c 00 00 00       	jmpq   401cd7 <notify_server+0x1d2>
  401c4b:	85 db                	test   %ebx,%ebx
  401c4d:	74 07                	je     401c56 <notify_server+0x151>
  401c4f:	ba 29 35 40 00       	mov    $0x403529,%edx
  401c54:	eb 05                	jmp    401c5b <notify_server+0x156>
  401c56:	ba 2e 35 40 00       	mov    $0x40352e,%edx
  401c5b:	be b0 36 40 00       	mov    $0x4036b0,%esi
  401c60:	bf 01 00 00 00       	mov    $0x1,%edi
  401c65:	b8 00 00 00 00       	mov    $0x0,%eax
  401c6a:	e8 91 f1 ff ff       	callq  400e00 <__printf_chk@plt>
  401c6f:	48 8b 15 ea 34 20 00 	mov    0x2034ea(%rip),%rdx        # 605160 <user_id>
  401c76:	be 6c 35 40 00       	mov    $0x40356c,%esi
  401c7b:	bf 01 00 00 00       	mov    $0x1,%edi
  401c80:	b8 00 00 00 00       	mov    $0x0,%eax
  401c85:	e8 76 f1 ff ff       	callq  400e00 <__printf_chk@plt>
  401c8a:	48 8b 15 e7 34 20 00 	mov    0x2034e7(%rip),%rdx        # 605178 <course>
  401c91:	be 79 35 40 00       	mov    $0x403579,%esi
  401c96:	bf 01 00 00 00       	mov    $0x1,%edi
  401c9b:	b8 00 00 00 00       	mov    $0x0,%eax
  401ca0:	e8 5b f1 ff ff       	callq  400e00 <__printf_chk@plt>
  401ca5:	48 8b 15 c4 34 20 00 	mov    0x2034c4(%rip),%rdx        # 605170 <lab>
  401cac:	be 85 35 40 00       	mov    $0x403585,%esi
  401cb1:	bf 01 00 00 00       	mov    $0x1,%edi
  401cb6:	b8 00 00 00 00       	mov    $0x0,%eax
  401cbb:	e8 40 f1 ff ff       	callq  400e00 <__printf_chk@plt>
  401cc0:	48 89 e2             	mov    %rsp,%rdx
  401cc3:	be 8e 35 40 00       	mov    $0x40358e,%esi
  401cc8:	bf 01 00 00 00       	mov    $0x1,%edi
  401ccd:	b8 00 00 00 00       	mov    $0x0,%eax
  401cd2:	e8 29 f1 ff ff       	callq  400e00 <__printf_chk@plt>
  401cd7:	48 8b 84 24 08 40 00 	mov    0x4008(%rsp),%rax
  401cde:	00 
  401cdf:	64 48 33 04 25 28 00 	xor    %fs:0x28,%rax
  401ce6:	00 00 
  401ce8:	74 05                	je     401cef <notify_server+0x1ea>
  401cea:	e8 01 f0 ff ff       	callq  400cf0 <__stack_chk_fail@plt>
  401cef:	48 81 c4 10 40 00 00 	add    $0x4010,%rsp
  401cf6:	5b                   	pop    %rbx
  401cf7:	c3                   	retq   

0000000000401cf8 <validate>:
  401cf8:	53                   	push   %rbx
  401cf9:	89 fb                	mov    %edi,%ebx
  401cfb:	83 3d 26 38 20 00 00 	cmpl   $0x0,0x203826(%rip)        # 605528 <is_checker>
  401d02:	74 6b                	je     401d6f <validate+0x77>
  401d04:	39 3d 12 38 20 00    	cmp    %edi,0x203812(%rip)        # 60551c <vlevel>
  401d0a:	74 14                	je     401d20 <validate+0x28>
  401d0c:	bf 9a 35 40 00       	mov    $0x40359a,%edi
  401d11:	e8 ba ef ff ff       	callq  400cd0 <puts@plt>
  401d16:	b8 00 00 00 00       	mov    $0x0,%eax
  401d1b:	e8 5e fd ff ff       	callq  401a7e <check_fail>
  401d20:	8b 15 f2 37 20 00    	mov    0x2037f2(%rip),%edx        # 605518 <check_level>
  401d26:	39 d7                	cmp    %edx,%edi
  401d28:	74 20                	je     401d4a <validate+0x52>
  401d2a:	89 f9                	mov    %edi,%ecx
  401d2c:	be d8 36 40 00       	mov    $0x4036d8,%esi
  401d31:	bf 01 00 00 00       	mov    $0x1,%edi
  401d36:	b8 00 00 00 00       	mov    $0x0,%eax
  401d3b:	e8 c0 f0 ff ff       	callq  400e00 <__printf_chk@plt>
  401d40:	b8 00 00 00 00       	mov    $0x0,%eax
  401d45:	e8 34 fd ff ff       	callq  401a7e <check_fail>
  401d4a:	0f be 15 f7 43 20 00 	movsbl 0x2043f7(%rip),%edx        # 606148 <target_prefix>
  401d51:	41 b8 40 55 60 00    	mov    $0x605540,%r8d
  401d57:	89 f9                	mov    %edi,%ecx
  401d59:	be b8 35 40 00       	mov    $0x4035b8,%esi
  401d5e:	bf 01 00 00 00       	mov    $0x1,%edi
  401d63:	b8 00 00 00 00       	mov    $0x0,%eax
  401d68:	e8 93 f0 ff ff       	callq  400e00 <__printf_chk@plt>
  401d6d:	eb 49                	jmp    401db8 <validate+0xc0>
  401d6f:	3b 3d a7 37 20 00    	cmp    0x2037a7(%rip),%edi        # 60551c <vlevel>
  401d75:	74 18                	je     401d8f <validate+0x97>
  401d77:	bf 9a 35 40 00       	mov    $0x40359a,%edi
  401d7c:	e8 4f ef ff ff       	callq  400cd0 <puts@plt>
  401d81:	89 de                	mov    %ebx,%esi
  401d83:	bf 00 00 00 00       	mov    $0x0,%edi
  401d88:	e8 78 fd ff ff       	callq  401b05 <notify_server>
  401d8d:	eb 29                	jmp    401db8 <validate+0xc0>
  401d8f:	0f be 0d b2 43 20 00 	movsbl 0x2043b2(%rip),%ecx        # 606148 <target_prefix>
  401d96:	89 fa                	mov    %edi,%edx
  401d98:	be 00 37 40 00       	mov    $0x403700,%esi
  401d9d:	bf 01 00 00 00       	mov    $0x1,%edi
  401da2:	b8 00 00 00 00       	mov    $0x0,%eax
  401da7:	e8 54 f0 ff ff       	callq  400e00 <__printf_chk@plt>
  401dac:	89 de                	mov    %ebx,%esi
  401dae:	bf 01 00 00 00       	mov    $0x1,%edi
  401db3:	e8 4d fd ff ff       	callq  401b05 <notify_server>
  401db8:	5b                   	pop    %rbx
  401db9:	c3                   	retq   

0000000000401dba <fail>:
  401dba:	48 83 ec 08          	sub    $0x8,%rsp
  401dbe:	83 3d 63 37 20 00 00 	cmpl   $0x0,0x203763(%rip)        # 605528 <is_checker>
  401dc5:	74 0a                	je     401dd1 <fail+0x17>
  401dc7:	b8 00 00 00 00       	mov    $0x0,%eax
  401dcc:	e8 ad fc ff ff       	callq  401a7e <check_fail>
  401dd1:	89 fe                	mov    %edi,%esi
  401dd3:	bf 00 00 00 00       	mov    $0x0,%edi
  401dd8:	e8 28 fd ff ff       	callq  401b05 <notify_server>
  401ddd:	48 83 c4 08          	add    $0x8,%rsp
  401de1:	c3                   	retq   

0000000000401de2 <bushandler>:
  401de2:	48 83 ec 08          	sub    $0x8,%rsp
  401de6:	83 3d 3b 37 20 00 00 	cmpl   $0x0,0x20373b(%rip)        # 605528 <is_checker>
  401ded:	74 14                	je     401e03 <bushandler+0x21>
  401def:	bf cd 35 40 00       	mov    $0x4035cd,%edi
  401df4:	e8 d7 ee ff ff       	callq  400cd0 <puts@plt>
  401df9:	b8 00 00 00 00       	mov    $0x0,%eax
  401dfe:	e8 7b fc ff ff       	callq  401a7e <check_fail>
  401e03:	bf 38 37 40 00       	mov    $0x403738,%edi
  401e08:	e8 c3 ee ff ff       	callq  400cd0 <puts@plt>
  401e0d:	bf d7 35 40 00       	mov    $0x4035d7,%edi
  401e12:	e8 b9 ee ff ff       	callq  400cd0 <puts@plt>
  401e17:	be 00 00 00 00       	mov    $0x0,%esi
  401e1c:	bf 00 00 00 00       	mov    $0x0,%edi
  401e21:	e8 df fc ff ff       	callq  401b05 <notify_server>
  401e26:	bf 01 00 00 00       	mov    $0x1,%edi
  401e2b:	e8 20 f0 ff ff       	callq  400e50 <exit@plt>

0000000000401e30 <seghandler>:
  401e30:	48 83 ec 08          	sub    $0x8,%rsp
  401e34:	83 3d ed 36 20 00 00 	cmpl   $0x0,0x2036ed(%rip)        # 605528 <is_checker>
  401e3b:	74 14                	je     401e51 <seghandler+0x21>
  401e3d:	bf ed 35 40 00       	mov    $0x4035ed,%edi
  401e42:	e8 89 ee ff ff       	callq  400cd0 <puts@plt>
  401e47:	b8 00 00 00 00       	mov    $0x0,%eax
  401e4c:	e8 2d fc ff ff       	callq  401a7e <check_fail>
  401e51:	bf 58 37 40 00       	mov    $0x403758,%edi
  401e56:	e8 75 ee ff ff       	callq  400cd0 <puts@plt>
  401e5b:	bf d7 35 40 00       	mov    $0x4035d7,%edi
  401e60:	e8 6b ee ff ff       	callq  400cd0 <puts@plt>
  401e65:	be 00 00 00 00       	mov    $0x0,%esi
  401e6a:	bf 00 00 00 00       	mov    $0x0,%edi
  401e6f:	e8 91 fc ff ff       	callq  401b05 <notify_server>
  401e74:	bf 01 00 00 00       	mov    $0x1,%edi
  401e79:	e8 d2 ef ff ff       	callq  400e50 <exit@plt>

0000000000401e7e <illegalhandler>:
  401e7e:	48 83 ec 08          	sub    $0x8,%rsp
  401e82:	83 3d 9f 36 20 00 00 	cmpl   $0x0,0x20369f(%rip)        # 605528 <is_checker>
  401e89:	74 14                	je     401e9f <illegalhandler+0x21>
  401e8b:	bf 00 36 40 00       	mov    $0x403600,%edi
  401e90:	e8 3b ee ff ff       	callq  400cd0 <puts@plt>
  401e95:	b8 00 00 00 00       	mov    $0x0,%eax
  401e9a:	e8 df fb ff ff       	callq  401a7e <check_fail>
  401e9f:	bf 80 37 40 00       	mov    $0x403780,%edi
  401ea4:	e8 27 ee ff ff       	callq  400cd0 <puts@plt>
  401ea9:	bf d7 35 40 00       	mov    $0x4035d7,%edi
  401eae:	e8 1d ee ff ff       	callq  400cd0 <puts@plt>
  401eb3:	be 00 00 00 00       	mov    $0x0,%esi
  401eb8:	bf 00 00 00 00       	mov    $0x0,%edi
  401ebd:	e8 43 fc ff ff       	callq  401b05 <notify_server>
  401ec2:	bf 01 00 00 00       	mov    $0x1,%edi
  401ec7:	e8 84 ef ff ff       	callq  400e50 <exit@plt>

0000000000401ecc <sigalrmhandler>:
  401ecc:	48 83 ec 08          	sub    $0x8,%rsp
  401ed0:	83 3d 51 36 20 00 00 	cmpl   $0x0,0x203651(%rip)        # 605528 <is_checker>
  401ed7:	74 14                	je     401eed <sigalrmhandler+0x21>
  401ed9:	bf 14 36 40 00       	mov    $0x403614,%edi
  401ede:	e8 ed ed ff ff       	callq  400cd0 <puts@plt>
  401ee3:	b8 00 00 00 00       	mov    $0x0,%eax
  401ee8:	e8 91 fb ff ff       	callq  401a7e <check_fail>
  401eed:	ba 05 00 00 00       	mov    $0x5,%edx
  401ef2:	be b0 37 40 00       	mov    $0x4037b0,%esi
  401ef7:	bf 01 00 00 00       	mov    $0x1,%edi
  401efc:	b8 00 00 00 00       	mov    $0x0,%eax
  401f01:	e8 fa ee ff ff       	callq  400e00 <__printf_chk@plt>
  401f06:	be 00 00 00 00       	mov    $0x0,%esi
  401f0b:	bf 00 00 00 00       	mov    $0x0,%edi
  401f10:	e8 f0 fb ff ff       	callq  401b05 <notify_server>
  401f15:	bf 01 00 00 00       	mov    $0x1,%edi
  401f1a:	e8 31 ef ff ff       	callq  400e50 <exit@plt>

0000000000401f1f <launch>:
  401f1f:	55                   	push   %rbp
  401f20:	48 89 e5             	mov    %rsp,%rbp
  401f23:	48 83 ec 10          	sub    $0x10,%rsp
  401f27:	48 89 fa             	mov    %rdi,%rdx
  401f2a:	64 48 8b 04 25 28 00 	mov    %fs:0x28,%rax
  401f31:	00 00 
  401f33:	48 89 45 f8          	mov    %rax,-0x8(%rbp)
  401f37:	31 c0                	xor    %eax,%eax
  401f39:	48 8d 47 1e          	lea    0x1e(%rdi),%rax
  401f3d:	48 83 e0 f0          	and    $0xfffffffffffffff0,%rax
  401f41:	48 29 c4             	sub    %rax,%rsp
  401f44:	48 8d 7c 24 0f       	lea    0xf(%rsp),%rdi
  401f49:	48 83 e7 f0          	and    $0xfffffffffffffff0,%rdi
  401f4d:	be f4 00 00 00       	mov    $0xf4,%esi
  401f52:	e8 b9 ed ff ff       	callq  400d10 <memset@plt>
  401f57:	48 8b 05 62 35 20 00 	mov    0x203562(%rip),%rax        # 6054c0 <stdin@@GLIBC_2.2.5>
  401f5e:	48 39 05 ab 35 20 00 	cmp    %rax,0x2035ab(%rip)        # 605510 <infile>
  401f65:	75 14                	jne    401f7b <launch+0x5c>
  401f67:	be 1c 36 40 00       	mov    $0x40361c,%esi
  401f6c:	bf 01 00 00 00       	mov    $0x1,%edi
  401f71:	b8 00 00 00 00       	mov    $0x0,%eax
  401f76:	e8 85 ee ff ff       	callq  400e00 <__printf_chk@plt>
  401f7b:	c7 05 97 35 20 00 00 	movl   $0x0,0x203597(%rip)        # 60551c <vlevel>
  401f82:	00 00 00 
  401f85:	b8 00 00 00 00       	mov    $0x0,%eax
  401f8a:	e8 5b fa ff ff       	callq  4019ea <test>
  401f8f:	83 3d 92 35 20 00 00 	cmpl   $0x0,0x203592(%rip)        # 605528 <is_checker>
  401f96:	74 14                	je     401fac <launch+0x8d>
  401f98:	bf 29 36 40 00       	mov    $0x403629,%edi
  401f9d:	e8 2e ed ff ff       	callq  400cd0 <puts@plt>
  401fa2:	b8 00 00 00 00       	mov    $0x0,%eax
  401fa7:	e8 d2 fa ff ff       	callq  401a7e <check_fail>
  401fac:	bf 34 36 40 00       	mov    $0x403634,%edi
  401fb1:	e8 1a ed ff ff       	callq  400cd0 <puts@plt>
  401fb6:	48 8b 45 f8          	mov    -0x8(%rbp),%rax
  401fba:	64 48 33 04 25 28 00 	xor    %fs:0x28,%rax
  401fc1:	00 00 
  401fc3:	74 05                	je     401fca <launch+0xab>
  401fc5:	e8 26 ed ff ff       	callq  400cf0 <__stack_chk_fail@plt>
  401fca:	c9                   	leaveq 
  401fcb:	c3                   	retq   

0000000000401fcc <stable_launch>:
  401fcc:	53                   	push   %rbx
  401fcd:	48 89 3d 34 35 20 00 	mov    %rdi,0x203534(%rip)        # 605508 <global_offset>
  401fd4:	41 b9 00 00 00 00    	mov    $0x0,%r9d
  401fda:	41 b8 00 00 00 00    	mov    $0x0,%r8d
  401fe0:	b9 32 01 00 00       	mov    $0x132,%ecx
  401fe5:	ba 07 00 00 00       	mov    $0x7,%edx
  401fea:	be 00 00 10 00       	mov    $0x100000,%esi
  401fef:	bf 00 60 58 55       	mov    $0x55586000,%edi
  401ff4:	e8 07 ed ff ff       	callq  400d00 <mmap@plt>
  401ff9:	48 89 c3             	mov    %rax,%rbx
  401ffc:	48 3d 00 60 58 55    	cmp    $0x55586000,%rax
  402002:	74 37                	je     40203b <stable_launch+0x6f>
  402004:	be 00 00 10 00       	mov    $0x100000,%esi
  402009:	48 89 c7             	mov    %rax,%rdi
  40200c:	e8 df ed ff ff       	callq  400df0 <munmap@plt>
  402011:	b9 00 60 58 55       	mov    $0x55586000,%ecx
  402016:	ba e8 37 40 00       	mov    $0x4037e8,%edx
  40201b:	be 01 00 00 00       	mov    $0x1,%esi
  402020:	48 8b 3d b9 34 20 00 	mov    0x2034b9(%rip),%rdi        # 6054e0 <stderr@@GLIBC_2.2.5>
  402027:	b8 00 00 00 00       	mov    $0x0,%eax
  40202c:	e8 3f ee ff ff       	callq  400e70 <__fprintf_chk@plt>
  402031:	bf 01 00 00 00       	mov    $0x1,%edi
  402036:	e8 15 ee ff ff       	callq  400e50 <exit@plt>
  40203b:	48 8d 90 f8 ff 0f 00 	lea    0xffff8(%rax),%rdx
  402042:	48 89 15 07 41 20 00 	mov    %rdx,0x204107(%rip)        # 606150 <stack_top>
  402049:	48 89 e0             	mov    %rsp,%rax
  40204c:	48 89 d4             	mov    %rdx,%rsp
  40204f:	48 89 c2             	mov    %rax,%rdx
  402052:	48 89 15 a7 34 20 00 	mov    %rdx,0x2034a7(%rip)        # 605500 <global_save_stack>
  402059:	48 8b 3d a8 34 20 00 	mov    0x2034a8(%rip),%rdi        # 605508 <global_offset>
  402060:	e8 ba fe ff ff       	callq  401f1f <launch>
  402065:	48 8b 05 94 34 20 00 	mov    0x203494(%rip),%rax        # 605500 <global_save_stack>
  40206c:	48 89 c4             	mov    %rax,%rsp
  40206f:	be 00 00 10 00       	mov    $0x100000,%esi
  402074:	48 89 df             	mov    %rbx,%rdi
  402077:	e8 74 ed ff ff       	callq  400df0 <munmap@plt>
  40207c:	5b                   	pop    %rbx
  40207d:	c3                   	retq   

000000000040207e <rio_readinitb>:
  40207e:	89 37                	mov    %esi,(%rdi)
  402080:	c7 47 04 00 00 00 00 	movl   $0x0,0x4(%rdi)
  402087:	48 8d 47 10          	lea    0x10(%rdi),%rax
  40208b:	48 89 47 08          	mov    %rax,0x8(%rdi)
  40208f:	c3                   	retq   

0000000000402090 <sigalrm_handler>:
  402090:	48 83 ec 08          	sub    $0x8,%rsp
  402094:	b9 00 00 00 00       	mov    $0x0,%ecx
  402099:	ba 20 38 40 00       	mov    $0x403820,%edx
  40209e:	be 01 00 00 00       	mov    $0x1,%esi
  4020a3:	48 8b 3d 36 34 20 00 	mov    0x203436(%rip),%rdi        # 6054e0 <stderr@@GLIBC_2.2.5>
  4020aa:	b8 00 00 00 00       	mov    $0x0,%eax
  4020af:	e8 bc ed ff ff       	callq  400e70 <__fprintf_chk@plt>
  4020b4:	bf 01 00 00 00       	mov    $0x1,%edi
  4020b9:	e8 92 ed ff ff       	callq  400e50 <exit@plt>

00000000004020be <rio_writen>:
  4020be:	41 55                	push   %r13
  4020c0:	41 54                	push   %r12
  4020c2:	55                   	push   %rbp
  4020c3:	53                   	push   %rbx
  4020c4:	48 83 ec 08          	sub    $0x8,%rsp
  4020c8:	41 89 fc             	mov    %edi,%r12d
  4020cb:	48 89 f5             	mov    %rsi,%rbp
  4020ce:	49 89 d5             	mov    %rdx,%r13
  4020d1:	48 89 d3             	mov    %rdx,%rbx
  4020d4:	eb 28                	jmp    4020fe <rio_writen+0x40>
  4020d6:	48 89 da             	mov    %rbx,%rdx
  4020d9:	48 89 ee             	mov    %rbp,%rsi
  4020dc:	44 89 e7             	mov    %r12d,%edi
  4020df:	e8 fc eb ff ff       	callq  400ce0 <write@plt>
  4020e4:	48 85 c0             	test   %rax,%rax
  4020e7:	7f 0f                	jg     4020f8 <rio_writen+0x3a>
  4020e9:	e8 a2 eb ff ff       	callq  400c90 <__errno_location@plt>
  4020ee:	83 38 04             	cmpl   $0x4,(%rax)
  4020f1:	75 15                	jne    402108 <rio_writen+0x4a>
  4020f3:	b8 00 00 00 00       	mov    $0x0,%eax
  4020f8:	48 29 c3             	sub    %rax,%rbx
  4020fb:	48 01 c5             	add    %rax,%rbp
  4020fe:	48 85 db             	test   %rbx,%rbx
  402101:	75 d3                	jne    4020d6 <rio_writen+0x18>
  402103:	4c 89 e8             	mov    %r13,%rax
  402106:	eb 07                	jmp    40210f <rio_writen+0x51>
  402108:	48 c7 c0 ff ff ff ff 	mov    $0xffffffffffffffff,%rax
  40210f:	48 83 c4 08          	add    $0x8,%rsp
  402113:	5b                   	pop    %rbx
  402114:	5d                   	pop    %rbp
  402115:	41 5c                	pop    %r12
  402117:	41 5d                	pop    %r13
  402119:	c3                   	retq   

000000000040211a <rio_read>:
  40211a:	41 55                	push   %r13
  40211c:	41 54                	push   %r12
  40211e:	55                   	push   %rbp
  40211f:	53                   	push   %rbx
  402120:	48 83 ec 08          	sub    $0x8,%rsp
  402124:	48 89 fb             	mov    %rdi,%rbx
  402127:	49 89 f5             	mov    %rsi,%r13
  40212a:	49 89 d4             	mov    %rdx,%r12
  40212d:	eb 2e                	jmp    40215d <rio_read+0x43>
  40212f:	48 8d 6b 10          	lea    0x10(%rbx),%rbp
  402133:	8b 3b                	mov    (%rbx),%edi
  402135:	ba 00 20 00 00       	mov    $0x2000,%edx
  40213a:	48 89 ee             	mov    %rbp,%rsi
  40213d:	e8 fe eb ff ff       	callq  400d40 <read@plt>
  402142:	89 43 04             	mov    %eax,0x4(%rbx)
  402145:	85 c0                	test   %eax,%eax
  402147:	79 0c                	jns    402155 <rio_read+0x3b>
  402149:	e8 42 eb ff ff       	callq  400c90 <__errno_location@plt>
  40214e:	83 38 04             	cmpl   $0x4,(%rax)
  402151:	74 0a                	je     40215d <rio_read+0x43>
  402153:	eb 37                	jmp    40218c <rio_read+0x72>
  402155:	85 c0                	test   %eax,%eax
  402157:	74 3c                	je     402195 <rio_read+0x7b>
  402159:	48 89 6b 08          	mov    %rbp,0x8(%rbx)
  40215d:	8b 6b 04             	mov    0x4(%rbx),%ebp
  402160:	85 ed                	test   %ebp,%ebp
  402162:	7e cb                	jle    40212f <rio_read+0x15>
  402164:	89 e8                	mov    %ebp,%eax
  402166:	49 39 c4             	cmp    %rax,%r12
  402169:	77 03                	ja     40216e <rio_read+0x54>
  40216b:	44 89 e5             	mov    %r12d,%ebp
  40216e:	4c 63 e5             	movslq %ebp,%r12
  402171:	48 8b 73 08          	mov    0x8(%rbx),%rsi
  402175:	4c 89 e2             	mov    %r12,%rdx
  402178:	4c 89 ef             	mov    %r13,%rdi
  40217b:	e8 20 ec ff ff       	callq  400da0 <memcpy@plt>
  402180:	4c 01 63 08          	add    %r12,0x8(%rbx)
  402184:	29 6b 04             	sub    %ebp,0x4(%rbx)
  402187:	4c 89 e0             	mov    %r12,%rax
  40218a:	eb 0e                	jmp    40219a <rio_read+0x80>
  40218c:	48 c7 c0 ff ff ff ff 	mov    $0xffffffffffffffff,%rax
  402193:	eb 05                	jmp    40219a <rio_read+0x80>
  402195:	b8 00 00 00 00       	mov    $0x0,%eax
  40219a:	48 83 c4 08          	add    $0x8,%rsp
  40219e:	5b                   	pop    %rbx
  40219f:	5d                   	pop    %rbp
  4021a0:	41 5c                	pop    %r12
  4021a2:	41 5d                	pop    %r13
  4021a4:	c3                   	retq   

00000000004021a5 <rio_readlineb>:
  4021a5:	41 55                	push   %r13
  4021a7:	41 54                	push   %r12
  4021a9:	55                   	push   %rbp
  4021aa:	53                   	push   %rbx
  4021ab:	48 83 ec 18          	sub    $0x18,%rsp
  4021af:	49 89 fd             	mov    %rdi,%r13
  4021b2:	48 89 f5             	mov    %rsi,%rbp
  4021b5:	49 89 d4             	mov    %rdx,%r12
  4021b8:	64 48 8b 04 25 28 00 	mov    %fs:0x28,%rax
  4021bf:	00 00 
  4021c1:	48 89 44 24 08       	mov    %rax,0x8(%rsp)
  4021c6:	31 c0                	xor    %eax,%eax
  4021c8:	bb 01 00 00 00       	mov    $0x1,%ebx
  4021cd:	eb 3f                	jmp    40220e <rio_readlineb+0x69>
  4021cf:	ba 01 00 00 00       	mov    $0x1,%edx
  4021d4:	48 8d 74 24 07       	lea    0x7(%rsp),%rsi
  4021d9:	4c 89 ef             	mov    %r13,%rdi
  4021dc:	e8 39 ff ff ff       	callq  40211a <rio_read>
  4021e1:	83 f8 01             	cmp    $0x1,%eax
  4021e4:	75 15                	jne    4021fb <rio_readlineb+0x56>
  4021e6:	48 8d 45 01          	lea    0x1(%rbp),%rax
  4021ea:	0f b6 54 24 07       	movzbl 0x7(%rsp),%edx
  4021ef:	88 55 00             	mov    %dl,0x0(%rbp)
  4021f2:	80 7c 24 07 0a       	cmpb   $0xa,0x7(%rsp)
  4021f7:	75 0e                	jne    402207 <rio_readlineb+0x62>
  4021f9:	eb 1a                	jmp    402215 <rio_readlineb+0x70>
  4021fb:	85 c0                	test   %eax,%eax
  4021fd:	75 22                	jne    402221 <rio_readlineb+0x7c>
  4021ff:	48 83 fb 01          	cmp    $0x1,%rbx
  402203:	75 13                	jne    402218 <rio_readlineb+0x73>
  402205:	eb 23                	jmp    40222a <rio_readlineb+0x85>
  402207:	48 83 c3 01          	add    $0x1,%rbx
  40220b:	48 89 c5             	mov    %rax,%rbp
  40220e:	4c 39 e3             	cmp    %r12,%rbx
  402211:	72 bc                	jb     4021cf <rio_readlineb+0x2a>
  402213:	eb 03                	jmp    402218 <rio_readlineb+0x73>
  402215:	48 89 c5             	mov    %rax,%rbp
  402218:	c6 45 00 00          	movb   $0x0,0x0(%rbp)
  40221c:	48 89 d8             	mov    %rbx,%rax
  40221f:	eb 0e                	jmp    40222f <rio_readlineb+0x8a>
  402221:	48 c7 c0 ff ff ff ff 	mov    $0xffffffffffffffff,%rax
  402228:	eb 05                	jmp    40222f <rio_readlineb+0x8a>
  40222a:	b8 00 00 00 00       	mov    $0x0,%eax
  40222f:	48 8b 4c 24 08       	mov    0x8(%rsp),%rcx
  402234:	64 48 33 0c 25 28 00 	xor    %fs:0x28,%rcx
  40223b:	00 00 
  40223d:	74 05                	je     402244 <rio_readlineb+0x9f>
  40223f:	e8 ac ea ff ff       	callq  400cf0 <__stack_chk_fail@plt>
  402244:	48 83 c4 18          	add    $0x18,%rsp
  402248:	5b                   	pop    %rbx
  402249:	5d                   	pop    %rbp
  40224a:	41 5c                	pop    %r12
  40224c:	41 5d                	pop    %r13
  40224e:	c3                   	retq   

000000000040224f <urlencode>:
  40224f:	41 54                	push   %r12
  402251:	55                   	push   %rbp
  402252:	53                   	push   %rbx
  402253:	48 83 ec 10          	sub    $0x10,%rsp
  402257:	48 89 fb             	mov    %rdi,%rbx
  40225a:	48 89 f5             	mov    %rsi,%rbp
  40225d:	64 48 8b 04 25 28 00 	mov    %fs:0x28,%rax
  402264:	00 00 
  402266:	48 89 44 24 08       	mov    %rax,0x8(%rsp)
  40226b:	31 c0                	xor    %eax,%eax
  40226d:	48 c7 c1 ff ff ff ff 	mov    $0xffffffffffffffff,%rcx
  402274:	f2 ae                	repnz scas %es:(%rdi),%al
  402276:	48 f7 d1             	not    %rcx
  402279:	8d 41 ff             	lea    -0x1(%rcx),%eax
  40227c:	e9 aa 00 00 00       	jmpq   40232b <urlencode+0xdc>
  402281:	44 0f b6 03          	movzbl (%rbx),%r8d
  402285:	41 80 f8 2a          	cmp    $0x2a,%r8b
  402289:	0f 94 c2             	sete   %dl
  40228c:	41 80 f8 2d          	cmp    $0x2d,%r8b
  402290:	0f 94 c0             	sete   %al
  402293:	08 c2                	or     %al,%dl
  402295:	75 24                	jne    4022bb <urlencode+0x6c>
  402297:	41 80 f8 2e          	cmp    $0x2e,%r8b
  40229b:	74 1e                	je     4022bb <urlencode+0x6c>
  40229d:	41 80 f8 5f          	cmp    $0x5f,%r8b
  4022a1:	74 18                	je     4022bb <urlencode+0x6c>
  4022a3:	41 8d 40 d0          	lea    -0x30(%r8),%eax
  4022a7:	3c 09                	cmp    $0x9,%al
  4022a9:	76 10                	jbe    4022bb <urlencode+0x6c>
  4022ab:	41 8d 40 bf          	lea    -0x41(%r8),%eax
  4022af:	3c 19                	cmp    $0x19,%al
  4022b1:	76 08                	jbe    4022bb <urlencode+0x6c>
  4022b3:	41 8d 40 9f          	lea    -0x61(%r8),%eax
  4022b7:	3c 19                	cmp    $0x19,%al
  4022b9:	77 0a                	ja     4022c5 <urlencode+0x76>
  4022bb:	44 88 45 00          	mov    %r8b,0x0(%rbp)
  4022bf:	48 8d 6d 01          	lea    0x1(%rbp),%rbp
  4022c3:	eb 5f                	jmp    402324 <urlencode+0xd5>
  4022c5:	41 80 f8 20          	cmp    $0x20,%r8b
  4022c9:	75 0a                	jne    4022d5 <urlencode+0x86>
  4022cb:	c6 45 00 2b          	movb   $0x2b,0x0(%rbp)
  4022cf:	48 8d 6d 01          	lea    0x1(%rbp),%rbp
  4022d3:	eb 4f                	jmp    402324 <urlencode+0xd5>
  4022d5:	41 8d 40 e0          	lea    -0x20(%r8),%eax
  4022d9:	3c 5f                	cmp    $0x5f,%al
  4022db:	0f 96 c2             	setbe  %dl
  4022de:	41 80 f8 09          	cmp    $0x9,%r8b
  4022e2:	0f 94 c0             	sete   %al
  4022e5:	08 c2                	or     %al,%dl
  4022e7:	74 50                	je     402339 <urlencode+0xea>
  4022e9:	45 0f b6 c0          	movzbl %r8b,%r8d
  4022ed:	b9 b8 38 40 00       	mov    $0x4038b8,%ecx
  4022f2:	ba 08 00 00 00       	mov    $0x8,%edx
  4022f7:	be 01 00 00 00       	mov    $0x1,%esi
  4022fc:	48 89 e7             	mov    %rsp,%rdi
  4022ff:	b8 00 00 00 00       	mov    $0x0,%eax
  402304:	e8 77 eb ff ff       	callq  400e80 <__sprintf_chk@plt>
  402309:	0f b6 04 24          	movzbl (%rsp),%eax
  40230d:	88 45 00             	mov    %al,0x0(%rbp)
  402310:	0f b6 44 24 01       	movzbl 0x1(%rsp),%eax
  402315:	88 45 01             	mov    %al,0x1(%rbp)
  402318:	0f b6 44 24 02       	movzbl 0x2(%rsp),%eax
  40231d:	88 45 02             	mov    %al,0x2(%rbp)
  402320:	48 8d 6d 03          	lea    0x3(%rbp),%rbp
  402324:	48 83 c3 01          	add    $0x1,%rbx
  402328:	44 89 e0             	mov    %r12d,%eax
  40232b:	44 8d 60 ff          	lea    -0x1(%rax),%r12d
  40232f:	85 c0                	test   %eax,%eax
  402331:	0f 85 4a ff ff ff    	jne    402281 <urlencode+0x32>
  402337:	eb 05                	jmp    40233e <urlencode+0xef>
  402339:	b8 ff ff ff ff       	mov    $0xffffffff,%eax
  40233e:	48 8b 74 24 08       	mov    0x8(%rsp),%rsi
  402343:	64 48 33 34 25 28 00 	xor    %fs:0x28,%rsi
  40234a:	00 00 
  40234c:	74 05                	je     402353 <urlencode+0x104>
  40234e:	e8 9d e9 ff ff       	callq  400cf0 <__stack_chk_fail@plt>
  402353:	48 83 c4 10          	add    $0x10,%rsp
  402357:	5b                   	pop    %rbx
  402358:	5d                   	pop    %rbp
  402359:	41 5c                	pop    %r12
  40235b:	c3                   	retq   

000000000040235c <submitr>:
  40235c:	41 57                	push   %r15
  40235e:	41 56                	push   %r14
  402360:	41 55                	push   %r13
  402362:	41 54                	push   %r12
  402364:	55                   	push   %rbp
  402365:	53                   	push   %rbx
  402366:	48 81 ec 58 a0 00 00 	sub    $0xa058,%rsp
  40236d:	49 89 fc             	mov    %rdi,%r12
  402370:	89 74 24 04          	mov    %esi,0x4(%rsp)
  402374:	49 89 d7             	mov    %rdx,%r15
  402377:	49 89 ce             	mov    %rcx,%r14
  40237a:	4c 89 44 24 08       	mov    %r8,0x8(%rsp)
  40237f:	4d 89 cd             	mov    %r9,%r13
  402382:	48 8b 9c 24 90 a0 00 	mov    0xa090(%rsp),%rbx
  402389:	00 
  40238a:	64 48 8b 04 25 28 00 	mov    %fs:0x28,%rax
  402391:	00 00 
  402393:	48 89 84 24 48 a0 00 	mov    %rax,0xa048(%rsp)
  40239a:	00 
  40239b:	31 c0                	xor    %eax,%eax
  40239d:	c7 44 24 1c 00 00 00 	movl   $0x0,0x1c(%rsp)
  4023a4:	00 
  4023a5:	ba 00 00 00 00       	mov    $0x0,%edx
  4023aa:	be 01 00 00 00       	mov    $0x1,%esi
  4023af:	bf 02 00 00 00       	mov    $0x2,%edi
  4023b4:	e8 d7 ea ff ff       	callq  400e90 <socket@plt>
  4023b9:	85 c0                	test   %eax,%eax
  4023bb:	79 4e                	jns    40240b <submitr+0xaf>
  4023bd:	48 b8 45 72 72 6f 72 	movabs $0x43203a726f727245,%rax
  4023c4:	3a 20 43 
  4023c7:	48 89 03             	mov    %rax,(%rbx)
  4023ca:	48 b8 6c 69 65 6e 74 	movabs $0x6e7520746e65696c,%rax
  4023d1:	20 75 6e 
  4023d4:	48 89 43 08          	mov    %rax,0x8(%rbx)
  4023d8:	48 b8 61 62 6c 65 20 	movabs $0x206f7420656c6261,%rax
  4023df:	74 6f 20 
  4023e2:	48 89 43 10          	mov    %rax,0x10(%rbx)
  4023e6:	48 b8 63 72 65 61 74 	movabs $0x7320657461657263,%rax
  4023ed:	65 20 73 
  4023f0:	48 89 43 18          	mov    %rax,0x18(%rbx)
  4023f4:	c7 43 20 6f 63 6b 65 	movl   $0x656b636f,0x20(%rbx)
  4023fb:	66 c7 43 24 74 00    	movw   $0x74,0x24(%rbx)
  402401:	b8 ff ff ff ff       	mov    $0xffffffff,%eax
  402406:	e9 97 06 00 00       	jmpq   402aa2 <submitr+0x746>
  40240b:	89 c5                	mov    %eax,%ebp
  40240d:	4c 89 e7             	mov    %r12,%rdi
  402410:	e8 5b e9 ff ff       	callq  400d70 <gethostbyname@plt>
  402415:	48 85 c0             	test   %rax,%rax
  402418:	75 67                	jne    402481 <submitr+0x125>
  40241a:	48 b8 45 72 72 6f 72 	movabs $0x44203a726f727245,%rax
  402421:	3a 20 44 
  402424:	48 89 03             	mov    %rax,(%rbx)
  402427:	48 b8 4e 53 20 69 73 	movabs $0x6e7520736920534e,%rax
  40242e:	20 75 6e 
  402431:	48 89 43 08          	mov    %rax,0x8(%rbx)
  402435:	48 b8 61 62 6c 65 20 	movabs $0x206f7420656c6261,%rax
  40243c:	74 6f 20 
  40243f:	48 89 43 10          	mov    %rax,0x10(%rbx)
  402443:	48 b8 72 65 73 6f 6c 	movabs $0x2065766c6f736572,%rax
  40244a:	76 65 20 
  40244d:	48 89 43 18          	mov    %rax,0x18(%rbx)
  402451:	48 b8 73 65 72 76 65 	movabs $0x6120726576726573,%rax
  402458:	72 20 61 
  40245b:	48 89 43 20          	mov    %rax,0x20(%rbx)
  40245f:	c7 43 28 64 64 72 65 	movl   $0x65726464,0x28(%rbx)
  402466:	66 c7 43 2c 73 73    	movw   $0x7373,0x2c(%rbx)
  40246c:	c6 43 2e 00          	movb   $0x0,0x2e(%rbx)
  402470:	89 ef                	mov    %ebp,%edi
  402472:	e8 b9 e8 ff ff       	callq  400d30 <close@plt>
  402477:	b8 ff ff ff ff       	mov    $0xffffffff,%eax
  40247c:	e9 21 06 00 00       	jmpq   402aa2 <submitr+0x746>
  402481:	48 c7 44 24 20 00 00 	movq   $0x0,0x20(%rsp)
  402488:	00 00 
  40248a:	48 c7 44 24 28 00 00 	movq   $0x0,0x28(%rsp)
  402491:	00 00 
  402493:	66 c7 44 24 20 02 00 	movw   $0x2,0x20(%rsp)
  40249a:	48 63 50 14          	movslq 0x14(%rax),%rdx
  40249e:	48 8b 40 18          	mov    0x18(%rax),%rax
  4024a2:	48 8b 30             	mov    (%rax),%rsi
  4024a5:	48 8d 7c 24 24       	lea    0x24(%rsp),%rdi
  4024aa:	b9 0c 00 00 00       	mov    $0xc,%ecx
  4024af:	e8 cc e8 ff ff       	callq  400d80 <__memmove_chk@plt>
  4024b4:	0f b7 44 24 04       	movzwl 0x4(%rsp),%eax
  4024b9:	66 c1 c8 08          	ror    $0x8,%ax
  4024bd:	66 89 44 24 22       	mov    %ax,0x22(%rsp)
  4024c2:	ba 10 00 00 00       	mov    $0x10,%edx
  4024c7:	48 8d 74 24 20       	lea    0x20(%rsp),%rsi
  4024cc:	89 ef                	mov    %ebp,%edi
  4024ce:	e8 8d e9 ff ff       	callq  400e60 <connect@plt>
  4024d3:	85 c0                	test   %eax,%eax
  4024d5:	79 59                	jns    402530 <submitr+0x1d4>
  4024d7:	48 b8 45 72 72 6f 72 	movabs $0x55203a726f727245,%rax
  4024de:	3a 20 55 
  4024e1:	48 89 03             	mov    %rax,(%rbx)
  4024e4:	48 b8 6e 61 62 6c 65 	movabs $0x6f7420656c62616e,%rax
  4024eb:	20 74 6f 
  4024ee:	48 89 43 08          	mov    %rax,0x8(%rbx)
  4024f2:	48 b8 20 63 6f 6e 6e 	movabs $0x7463656e6e6f6320,%rax
  4024f9:	65 63 74 
  4024fc:	48 89 43 10          	mov    %rax,0x10(%rbx)
  402500:	48 b8 20 74 6f 20 74 	movabs $0x20656874206f7420,%rax
  402507:	68 65 20 
  40250a:	48 89 43 18          	mov    %rax,0x18(%rbx)
  40250e:	c7 43 20 73 65 72 76 	movl   $0x76726573,0x20(%rbx)
  402515:	66 c7 43 24 65 72    	movw   $0x7265,0x24(%rbx)
  40251b:	c6 43 26 00          	movb   $0x0,0x26(%rbx)
  40251f:	89 ef                	mov    %ebp,%edi
  402521:	e8 0a e8 ff ff       	callq  400d30 <close@plt>
  402526:	b8 ff ff ff ff       	mov    $0xffffffff,%eax
  40252b:	e9 72 05 00 00       	jmpq   402aa2 <submitr+0x746>
  402530:	48 c7 c6 ff ff ff ff 	mov    $0xffffffffffffffff,%rsi
  402537:	b8 00 00 00 00       	mov    $0x0,%eax
  40253c:	48 89 f1             	mov    %rsi,%rcx
  40253f:	4c 89 ef             	mov    %r13,%rdi
  402542:	f2 ae                	repnz scas %es:(%rdi),%al
  402544:	48 f7 d1             	not    %rcx
  402547:	48 89 ca             	mov    %rcx,%rdx
  40254a:	48 89 f1             	mov    %rsi,%rcx
  40254d:	4c 89 ff             	mov    %r15,%rdi
  402550:	f2 ae                	repnz scas %es:(%rdi),%al
  402552:	48 f7 d1             	not    %rcx
  402555:	49 89 c8             	mov    %rcx,%r8
  402558:	48 89 f1             	mov    %rsi,%rcx
  40255b:	4c 89 f7             	mov    %r14,%rdi
  40255e:	f2 ae                	repnz scas %es:(%rdi),%al
  402560:	48 f7 d1             	not    %rcx
  402563:	4d 8d 44 08 fe       	lea    -0x2(%r8,%rcx,1),%r8
  402568:	48 89 f1             	mov    %rsi,%rcx
  40256b:	48 8b 7c 24 08       	mov    0x8(%rsp),%rdi
  402570:	f2 ae                	repnz scas %es:(%rdi),%al
  402572:	48 89 c8             	mov    %rcx,%rax
  402575:	48 f7 d0             	not    %rax
  402578:	49 8d 4c 00 ff       	lea    -0x1(%r8,%rax,1),%rcx
  40257d:	48 8d 44 52 fd       	lea    -0x3(%rdx,%rdx,2),%rax
  402582:	48 8d 84 01 80 00 00 	lea    0x80(%rcx,%rax,1),%rax
  402589:	00 
  40258a:	48 3d 00 20 00 00    	cmp    $0x2000,%rax
  402590:	76 72                	jbe    402604 <submitr+0x2a8>
  402592:	48 b8 45 72 72 6f 72 	movabs $0x52203a726f727245,%rax
  402599:	3a 20 52 
  40259c:	48 89 03             	mov    %rax,(%rbx)
  40259f:	48 b8 65 73 75 6c 74 	movabs $0x747320746c757365,%rax
  4025a6:	20 73 74 
  4025a9:	48 89 43 08          	mov    %rax,0x8(%rbx)
  4025ad:	48 b8 72 69 6e 67 20 	movabs $0x6f6f7420676e6972,%rax
  4025b4:	74 6f 6f 
  4025b7:	48 89 43 10          	mov    %rax,0x10(%rbx)
  4025bb:	48 b8 20 6c 61 72 67 	movabs $0x202e656772616c20,%rax
  4025c2:	65 2e 20 
  4025c5:	48 89 43 18          	mov    %rax,0x18(%rbx)
  4025c9:	48 b8 49 6e 63 72 65 	movabs $0x6573616572636e49,%rax
  4025d0:	61 73 65 
  4025d3:	48 89 43 20          	mov    %rax,0x20(%rbx)
  4025d7:	48 b8 20 53 55 42 4d 	movabs $0x5254494d42555320,%rax
  4025de:	49 54 52 
  4025e1:	48 89 43 28          	mov    %rax,0x28(%rbx)
  4025e5:	48 b8 5f 4d 41 58 42 	movabs $0x46554258414d5f,%rax
  4025ec:	55 46 00 
  4025ef:	48 89 43 30          	mov    %rax,0x30(%rbx)
  4025f3:	89 ef                	mov    %ebp,%edi
  4025f5:	e8 36 e7 ff ff       	callq  400d30 <close@plt>
  4025fa:	b8 ff ff ff ff       	mov    $0xffffffff,%eax
  4025ff:	e9 9e 04 00 00       	jmpq   402aa2 <submitr+0x746>
  402604:	48 8d b4 24 40 40 00 	lea    0x4040(%rsp),%rsi
  40260b:	00 
  40260c:	b9 00 04 00 00       	mov    $0x400,%ecx
  402611:	b8 00 00 00 00       	mov    $0x0,%eax
  402616:	48 89 f7             	mov    %rsi,%rdi
  402619:	f3 48 ab             	rep stos %rax,%es:(%rdi)
  40261c:	4c 89 ef             	mov    %r13,%rdi
  40261f:	e8 2b fc ff ff       	callq  40224f <urlencode>
  402624:	85 c0                	test   %eax,%eax
  402626:	0f 89 8a 00 00 00    	jns    4026b6 <submitr+0x35a>
  40262c:	48 b8 45 72 72 6f 72 	movabs $0x52203a726f727245,%rax
  402633:	3a 20 52 
  402636:	48 89 03             	mov    %rax,(%rbx)
  402639:	48 b8 65 73 75 6c 74 	movabs $0x747320746c757365,%rax
  402640:	20 73 74 
  402643:	48 89 43 08          	mov    %rax,0x8(%rbx)
  402647:	48 b8 72 69 6e 67 20 	movabs $0x6e6f6320676e6972,%rax
  40264e:	63 6f 6e 
  402651:	48 89 43 10          	mov    %rax,0x10(%rbx)
  402655:	48 b8 74 61 69 6e 73 	movabs $0x6e6120736e696174,%rax
  40265c:	20 61 6e 
  40265f:	48 89 43 18          	mov    %rax,0x18(%rbx)
  402663:	48 b8 20 69 6c 6c 65 	movabs $0x6c6167656c6c6920,%rax
  40266a:	67 61 6c 
  40266d:	48 89 43 20          	mov    %rax,0x20(%rbx)
  402671:	48 b8 20 6f 72 20 75 	movabs $0x72706e7520726f20,%rax
  402678:	6e 70 72 
  40267b:	48 89 43 28          	mov    %rax,0x28(%rbx)
  40267f:	48 b8 69 6e 74 61 62 	movabs $0x20656c6261746e69,%rax
  402686:	6c 65 20 
  402689:	48 89 43 30          	mov    %rax,0x30(%rbx)
  40268d:	48 b8 63 68 61 72 61 	movabs $0x6574636172616863,%rax
  402694:	63 74 65 
  402697:	48 89 43 38          	mov    %rax,0x38(%rbx)
  40269b:	66 c7 43 40 72 2e    	movw   $0x2e72,0x40(%rbx)
  4026a1:	c6 43 42 00          	movb   $0x0,0x42(%rbx)
  4026a5:	89 ef                	mov    %ebp,%edi
  4026a7:	e8 84 e6 ff ff       	callq  400d30 <close@plt>
  4026ac:	b8 ff ff ff ff       	mov    $0xffffffff,%eax
  4026b1:	e9 ec 03 00 00       	jmpq   402aa2 <submitr+0x746>
  4026b6:	4c 8d ac 24 40 20 00 	lea    0x2040(%rsp),%r13
  4026bd:	00 
  4026be:	41 54                	push   %r12
  4026c0:	48 8d 84 24 48 40 00 	lea    0x4048(%rsp),%rax
  4026c7:	00 
  4026c8:	50                   	push   %rax
  4026c9:	4d 89 f9             	mov    %r15,%r9
  4026cc:	4d 89 f0             	mov    %r14,%r8
  4026cf:	b9 48 38 40 00       	mov    $0x403848,%ecx
  4026d4:	ba 00 20 00 00       	mov    $0x2000,%edx
  4026d9:	be 01 00 00 00       	mov    $0x1,%esi
  4026de:	4c 89 ef             	mov    %r13,%rdi
  4026e1:	b8 00 00 00 00       	mov    $0x0,%eax
  4026e6:	e8 95 e7 ff ff       	callq  400e80 <__sprintf_chk@plt>
  4026eb:	b8 00 00 00 00       	mov    $0x0,%eax
  4026f0:	48 c7 c1 ff ff ff ff 	mov    $0xffffffffffffffff,%rcx
  4026f7:	4c 89 ef             	mov    %r13,%rdi
  4026fa:	f2 ae                	repnz scas %es:(%rdi),%al
  4026fc:	48 f7 d1             	not    %rcx
  4026ff:	48 8d 51 ff          	lea    -0x1(%rcx),%rdx
  402703:	4c 89 ee             	mov    %r13,%rsi
  402706:	89 ef                	mov    %ebp,%edi
  402708:	e8 b1 f9 ff ff       	callq  4020be <rio_writen>
  40270d:	48 83 c4 10          	add    $0x10,%rsp
  402711:	48 85 c0             	test   %rax,%rax
  402714:	79 6e                	jns    402784 <submitr+0x428>
  402716:	48 b8 45 72 72 6f 72 	movabs $0x43203a726f727245,%rax
  40271d:	3a 20 43 
  402720:	48 89 03             	mov    %rax,(%rbx)
  402723:	48 b8 6c 69 65 6e 74 	movabs $0x6e7520746e65696c,%rax
  40272a:	20 75 6e 
  40272d:	48 89 43 08          	mov    %rax,0x8(%rbx)
  402731:	48 b8 61 62 6c 65 20 	movabs $0x206f7420656c6261,%rax
  402738:	74 6f 20 
  40273b:	48 89 43 10          	mov    %rax,0x10(%rbx)
  40273f:	48 b8 77 72 69 74 65 	movabs $0x6f74206574697277,%rax
  402746:	20 74 6f 
  402749:	48 89 43 18          	mov    %rax,0x18(%rbx)
  40274d:	48 b8 20 74 68 65 20 	movabs $0x7365722065687420,%rax
  402754:	72 65 73 
  402757:	48 89 43 20          	mov    %rax,0x20(%rbx)
  40275b:	48 b8 75 6c 74 20 73 	movabs $0x7672657320746c75,%rax
  402762:	65 72 76 
  402765:	48 89 43 28          	mov    %rax,0x28(%rbx)
  402769:	66 c7 43 30 65 72    	movw   $0x7265,0x30(%rbx)
  40276f:	c6 43 32 00          	movb   $0x0,0x32(%rbx)
  402773:	89 ef                	mov    %ebp,%edi
  402775:	e8 b6 e5 ff ff       	callq  400d30 <close@plt>
  40277a:	b8 ff ff ff ff       	mov    $0xffffffff,%eax
  40277f:	e9 1e 03 00 00       	jmpq   402aa2 <submitr+0x746>
  402784:	89 ee                	mov    %ebp,%esi
  402786:	48 8d 7c 24 30       	lea    0x30(%rsp),%rdi
  40278b:	e8 ee f8 ff ff       	callq  40207e <rio_readinitb>
  402790:	ba 00 20 00 00       	mov    $0x2000,%edx
  402795:	48 8d b4 24 40 20 00 	lea    0x2040(%rsp),%rsi
  40279c:	00 
  40279d:	48 8d 7c 24 30       	lea    0x30(%rsp),%rdi
  4027a2:	e8 fe f9 ff ff       	callq  4021a5 <rio_readlineb>
  4027a7:	48 85 c0             	test   %rax,%rax
  4027aa:	7f 7d                	jg     402829 <submitr+0x4cd>
  4027ac:	48 b8 45 72 72 6f 72 	movabs $0x43203a726f727245,%rax
  4027b3:	3a 20 43 
  4027b6:	48 89 03             	mov    %rax,(%rbx)
  4027b9:	48 b8 6c 69 65 6e 74 	movabs $0x6e7520746e65696c,%rax
  4027c0:	20 75 6e 
  4027c3:	48 89 43 08          	mov    %rax,0x8(%rbx)
  4027c7:	48 b8 61 62 6c 65 20 	movabs $0x206f7420656c6261,%rax
  4027ce:	74 6f 20 
  4027d1:	48 89 43 10          	mov    %rax,0x10(%rbx)
  4027d5:	48 b8 72 65 61 64 20 	movabs $0x7269662064616572,%rax
  4027dc:	66 69 72 
  4027df:	48 89 43 18          	mov    %rax,0x18(%rbx)
  4027e3:	48 b8 73 74 20 68 65 	movabs $0x6564616568207473,%rax
  4027ea:	61 64 65 
  4027ed:	48 89 43 20          	mov    %rax,0x20(%rbx)
  4027f1:	48 b8 72 20 66 72 6f 	movabs $0x72206d6f72662072,%rax
  4027f8:	6d 20 72 
  4027fb:	48 89 43 28          	mov    %rax,0x28(%rbx)
  4027ff:	48 b8 65 73 75 6c 74 	movabs $0x657320746c757365,%rax
  402806:	20 73 65 
  402809:	48 89 43 30          	mov    %rax,0x30(%rbx)
  40280d:	c7 43 38 72 76 65 72 	movl   $0x72657672,0x38(%rbx)
  402814:	c6 43 3c 00          	movb   $0x0,0x3c(%rbx)
  402818:	89 ef                	mov    %ebp,%edi
  40281a:	e8 11 e5 ff ff       	callq  400d30 <close@plt>
  40281f:	b8 ff ff ff ff       	mov    $0xffffffff,%eax
  402824:	e9 79 02 00 00       	jmpq   402aa2 <submitr+0x746>
  402829:	4c 8d 84 24 40 80 00 	lea    0x8040(%rsp),%r8
  402830:	00 
  402831:	48 8d 4c 24 1c       	lea    0x1c(%rsp),%rcx
  402836:	48 8d 94 24 40 60 00 	lea    0x6040(%rsp),%rdx
  40283d:	00 
  40283e:	be bf 38 40 00       	mov    $0x4038bf,%esi
  402843:	48 8d bc 24 40 20 00 	lea    0x2040(%rsp),%rdi
  40284a:	00 
  40284b:	b8 00 00 00 00       	mov    $0x0,%eax
  402850:	e8 8b e5 ff ff       	callq  400de0 <__isoc99_sscanf@plt>
  402855:	e9 95 00 00 00       	jmpq   4028ef <submitr+0x593>
  40285a:	ba 00 20 00 00       	mov    $0x2000,%edx
  40285f:	48 8d b4 24 40 20 00 	lea    0x2040(%rsp),%rsi
  402866:	00 
  402867:	48 8d 7c 24 30       	lea    0x30(%rsp),%rdi
  40286c:	e8 34 f9 ff ff       	callq  4021a5 <rio_readlineb>
  402871:	48 85 c0             	test   %rax,%rax
  402874:	7f 79                	jg     4028ef <submitr+0x593>
  402876:	48 b8 45 72 72 6f 72 	movabs $0x43203a726f727245,%rax
  40287d:	3a 20 43 
  402880:	48 89 03             	mov    %rax,(%rbx)
  402883:	48 b8 6c 69 65 6e 74 	movabs $0x6e7520746e65696c,%rax
  40288a:	20 75 6e 
  40288d:	48 89 43 08          	mov    %rax,0x8(%rbx)
  402891:	48 b8 61 62 6c 65 20 	movabs $0x206f7420656c6261,%rax
  402898:	74 6f 20 
  40289b:	48 89 43 10          	mov    %rax,0x10(%rbx)
  40289f:	48 b8 72 65 61 64 20 	movabs $0x6165682064616572,%rax
  4028a6:	68 65 61 
  4028a9:	48 89 43 18          	mov    %rax,0x18(%rbx)
  4028ad:	48 b8 64 65 72 73 20 	movabs $0x6f72662073726564,%rax
  4028b4:	66 72 6f 
  4028b7:	48 89 43 20          	mov    %rax,0x20(%rbx)
  4028bb:	48 b8 6d 20 74 68 65 	movabs $0x657220656874206d,%rax
  4028c2:	20 72 65 
  4028c5:	48 89 43 28          	mov    %rax,0x28(%rbx)
  4028c9:	48 b8 73 75 6c 74 20 	movabs $0x72657320746c7573,%rax
  4028d0:	73 65 72 
  4028d3:	48 89 43 30          	mov    %rax,0x30(%rbx)
  4028d7:	c7 43 38 76 65 72 00 	movl   $0x726576,0x38(%rbx)
  4028de:	89 ef                	mov    %ebp,%edi
  4028e0:	e8 4b e4 ff ff       	callq  400d30 <close@plt>
  4028e5:	b8 ff ff ff ff       	mov    $0xffffffff,%eax
  4028ea:	e9 b3 01 00 00       	jmpq   402aa2 <submitr+0x746>
  4028ef:	0f b6 94 24 40 20 00 	movzbl 0x2040(%rsp),%edx
  4028f6:	00 
  4028f7:	b8 0d 00 00 00       	mov    $0xd,%eax
  4028fc:	29 d0                	sub    %edx,%eax
  4028fe:	75 1b                	jne    40291b <submitr+0x5bf>
  402900:	0f b6 94 24 41 20 00 	movzbl 0x2041(%rsp),%edx
  402907:	00 
  402908:	b8 0a 00 00 00       	mov    $0xa,%eax
  40290d:	29 d0                	sub    %edx,%eax
  40290f:	75 0a                	jne    40291b <submitr+0x5bf>
  402911:	0f b6 84 24 42 20 00 	movzbl 0x2042(%rsp),%eax
  402918:	00 
  402919:	f7 d8                	neg    %eax
  40291b:	85 c0                	test   %eax,%eax
  40291d:	0f 85 37 ff ff ff    	jne    40285a <submitr+0x4fe>
  402923:	ba 00 20 00 00       	mov    $0x2000,%edx
  402928:	48 8d b4 24 40 20 00 	lea    0x2040(%rsp),%rsi
  40292f:	00 
  402930:	48 8d 7c 24 30       	lea    0x30(%rsp),%rdi
  402935:	e8 6b f8 ff ff       	callq  4021a5 <rio_readlineb>
  40293a:	48 85 c0             	test   %rax,%rax
  40293d:	0f 8f 83 00 00 00    	jg     4029c6 <submitr+0x66a>
  402943:	48 b8 45 72 72 6f 72 	movabs $0x43203a726f727245,%rax
  40294a:	3a 20 43 
  40294d:	48 89 03             	mov    %rax,(%rbx)
  402950:	48 b8 6c 69 65 6e 74 	movabs $0x6e7520746e65696c,%rax
  402957:	20 75 6e 
  40295a:	48 89 43 08          	mov    %rax,0x8(%rbx)
  40295e:	48 b8 61 62 6c 65 20 	movabs $0x206f7420656c6261,%rax
  402965:	74 6f 20 
  402968:	48 89 43 10          	mov    %rax,0x10(%rbx)
  40296c:	48 b8 72 65 61 64 20 	movabs $0x6174732064616572,%rax
  402973:	73 74 61 
  402976:	48 89 43 18          	mov    %rax,0x18(%rbx)
  40297a:	48 b8 74 75 73 20 6d 	movabs $0x7373656d20737574,%rax
  402981:	65 73 73 
  402984:	48 89 43 20          	mov    %rax,0x20(%rbx)
  402988:	48 b8 61 67 65 20 66 	movabs $0x6d6f726620656761,%rax
  40298f:	72 6f 6d 
  402992:	48 89 43 28          	mov    %rax,0x28(%rbx)
  402996:	48 b8 20 72 65 73 75 	movabs $0x20746c7573657220,%rax
  40299d:	6c 74 20 
  4029a0:	48 89 43 30          	mov    %rax,0x30(%rbx)
  4029a4:	c7 43 38 73 65 72 76 	movl   $0x76726573,0x38(%rbx)
  4029ab:	66 c7 43 3c 65 72    	movw   $0x7265,0x3c(%rbx)
  4029b1:	c6 43 3e 00          	movb   $0x0,0x3e(%rbx)
  4029b5:	89 ef                	mov    %ebp,%edi
  4029b7:	e8 74 e3 ff ff       	callq  400d30 <close@plt>
  4029bc:	b8 ff ff ff ff       	mov    $0xffffffff,%eax
  4029c1:	e9 dc 00 00 00       	jmpq   402aa2 <submitr+0x746>
  4029c6:	44 8b 44 24 1c       	mov    0x1c(%rsp),%r8d
  4029cb:	41 81 f8 c8 00 00 00 	cmp    $0xc8,%r8d
  4029d2:	74 37                	je     402a0b <submitr+0x6af>
  4029d4:	4c 8d 8c 24 40 80 00 	lea    0x8040(%rsp),%r9
  4029db:	00 
  4029dc:	b9 88 38 40 00       	mov    $0x403888,%ecx
  4029e1:	48 c7 c2 ff ff ff ff 	mov    $0xffffffffffffffff,%rdx
  4029e8:	be 01 00 00 00       	mov    $0x1,%esi
  4029ed:	48 89 df             	mov    %rbx,%rdi
  4029f0:	b8 00 00 00 00       	mov    $0x0,%eax
  4029f5:	e8 86 e4 ff ff       	callq  400e80 <__sprintf_chk@plt>
  4029fa:	89 ef                	mov    %ebp,%edi
  4029fc:	e8 2f e3 ff ff       	callq  400d30 <close@plt>
  402a01:	b8 ff ff ff ff       	mov    $0xffffffff,%eax
  402a06:	e9 97 00 00 00       	jmpq   402aa2 <submitr+0x746>
  402a0b:	48 8d b4 24 40 20 00 	lea    0x2040(%rsp),%rsi
  402a12:	00 
  402a13:	48 89 df             	mov    %rbx,%rdi
  402a16:	e8 a5 e2 ff ff       	callq  400cc0 <strcpy@plt>
  402a1b:	89 ef                	mov    %ebp,%edi
  402a1d:	e8 0e e3 ff ff       	callq  400d30 <close@plt>
  402a22:	0f b6 03             	movzbl (%rbx),%eax
  402a25:	ba 4f 00 00 00       	mov    $0x4f,%edx
  402a2a:	29 c2                	sub    %eax,%edx
  402a2c:	75 22                	jne    402a50 <submitr+0x6f4>
  402a2e:	0f b6 4b 01          	movzbl 0x1(%rbx),%ecx
  402a32:	b8 4b 00 00 00       	mov    $0x4b,%eax
  402a37:	29 c8                	sub    %ecx,%eax
  402a39:	75 17                	jne    402a52 <submitr+0x6f6>
  402a3b:	0f b6 4b 02          	movzbl 0x2(%rbx),%ecx
  402a3f:	b8 0a 00 00 00       	mov    $0xa,%eax
  402a44:	29 c8                	sub    %ecx,%eax
  402a46:	75 0a                	jne    402a52 <submitr+0x6f6>
  402a48:	0f b6 43 03          	movzbl 0x3(%rbx),%eax
  402a4c:	f7 d8                	neg    %eax
  402a4e:	eb 02                	jmp    402a52 <submitr+0x6f6>
  402a50:	89 d0                	mov    %edx,%eax
  402a52:	85 c0                	test   %eax,%eax
  402a54:	74 40                	je     402a96 <submitr+0x73a>
  402a56:	bf d0 38 40 00       	mov    $0x4038d0,%edi
  402a5b:	b9 05 00 00 00       	mov    $0x5,%ecx
  402a60:	48 89 de             	mov    %rbx,%rsi
  402a63:	f3 a6                	repz cmpsb %es:(%rdi),%ds:(%rsi)
  402a65:	0f 97 c0             	seta   %al
  402a68:	0f 92 c1             	setb   %cl
  402a6b:	29 c8                	sub    %ecx,%eax
  402a6d:	0f be c0             	movsbl %al,%eax
  402a70:	85 c0                	test   %eax,%eax
  402a72:	74 2e                	je     402aa2 <submitr+0x746>
  402a74:	85 d2                	test   %edx,%edx
  402a76:	75 13                	jne    402a8b <submitr+0x72f>
  402a78:	0f b6 43 01          	movzbl 0x1(%rbx),%eax
  402a7c:	ba 4b 00 00 00       	mov    $0x4b,%edx
  402a81:	29 c2                	sub    %eax,%edx
  402a83:	75 06                	jne    402a8b <submitr+0x72f>
  402a85:	0f b6 53 02          	movzbl 0x2(%rbx),%edx
  402a89:	f7 da                	neg    %edx
  402a8b:	85 d2                	test   %edx,%edx
  402a8d:	75 0e                	jne    402a9d <submitr+0x741>
  402a8f:	b8 00 00 00 00       	mov    $0x0,%eax
  402a94:	eb 0c                	jmp    402aa2 <submitr+0x746>
  402a96:	b8 00 00 00 00       	mov    $0x0,%eax
  402a9b:	eb 05                	jmp    402aa2 <submitr+0x746>
  402a9d:	b8 ff ff ff ff       	mov    $0xffffffff,%eax
  402aa2:	48 8b 9c 24 48 a0 00 	mov    0xa048(%rsp),%rbx
  402aa9:	00 
  402aaa:	64 48 33 1c 25 28 00 	xor    %fs:0x28,%rbx
  402ab1:	00 00 
  402ab3:	74 05                	je     402aba <submitr+0x75e>
  402ab5:	e8 36 e2 ff ff       	callq  400cf0 <__stack_chk_fail@plt>
  402aba:	48 81 c4 58 a0 00 00 	add    $0xa058,%rsp
  402ac1:	5b                   	pop    %rbx
  402ac2:	5d                   	pop    %rbp
  402ac3:	41 5c                	pop    %r12
  402ac5:	41 5d                	pop    %r13
  402ac7:	41 5e                	pop    %r14
  402ac9:	41 5f                	pop    %r15
  402acb:	c3                   	retq   

0000000000402acc <init_timeout>:
  402acc:	85 ff                	test   %edi,%edi
  402ace:	74 23                	je     402af3 <init_timeout+0x27>
  402ad0:	53                   	push   %rbx
  402ad1:	89 fb                	mov    %edi,%ebx
  402ad3:	85 ff                	test   %edi,%edi
  402ad5:	79 05                	jns    402adc <init_timeout+0x10>
  402ad7:	bb 00 00 00 00       	mov    $0x0,%ebx
  402adc:	be 90 20 40 00       	mov    $0x402090,%esi
  402ae1:	bf 0e 00 00 00       	mov    $0xe,%edi
  402ae6:	e8 75 e2 ff ff       	callq  400d60 <signal@plt>
  402aeb:	89 df                	mov    %ebx,%edi
  402aed:	e8 2e e2 ff ff       	callq  400d20 <alarm@plt>
  402af2:	5b                   	pop    %rbx
  402af3:	f3 c3                	repz retq 

0000000000402af5 <init_driver>:
  402af5:	55                   	push   %rbp
  402af6:	53                   	push   %rbx
  402af7:	48 83 ec 28          	sub    $0x28,%rsp
  402afb:	48 89 fd             	mov    %rdi,%rbp
  402afe:	64 48 8b 04 25 28 00 	mov    %fs:0x28,%rax
  402b05:	00 00 
  402b07:	48 89 44 24 18       	mov    %rax,0x18(%rsp)
  402b0c:	31 c0                	xor    %eax,%eax
  402b0e:	be 01 00 00 00       	mov    $0x1,%esi
  402b13:	bf 0d 00 00 00       	mov    $0xd,%edi
  402b18:	e8 43 e2 ff ff       	callq  400d60 <signal@plt>
  402b1d:	be 01 00 00 00       	mov    $0x1,%esi
  402b22:	bf 1d 00 00 00       	mov    $0x1d,%edi
  402b27:	e8 34 e2 ff ff       	callq  400d60 <signal@plt>
  402b2c:	be 01 00 00 00       	mov    $0x1,%esi
  402b31:	bf 1d 00 00 00       	mov    $0x1d,%edi
  402b36:	e8 25 e2 ff ff       	callq  400d60 <signal@plt>
  402b3b:	ba 00 00 00 00       	mov    $0x0,%edx
  402b40:	be 01 00 00 00       	mov    $0x1,%esi
  402b45:	bf 02 00 00 00       	mov    $0x2,%edi
  402b4a:	e8 41 e3 ff ff       	callq  400e90 <socket@plt>
  402b4f:	85 c0                	test   %eax,%eax
  402b51:	79 4f                	jns    402ba2 <init_driver+0xad>
  402b53:	48 b8 45 72 72 6f 72 	movabs $0x43203a726f727245,%rax
  402b5a:	3a 20 43 
  402b5d:	48 89 45 00          	mov    %rax,0x0(%rbp)
  402b61:	48 b8 6c 69 65 6e 74 	movabs $0x6e7520746e65696c,%rax
  402b68:	20 75 6e 
  402b6b:	48 89 45 08          	mov    %rax,0x8(%rbp)
  402b6f:	48 b8 61 62 6c 65 20 	movabs $0x206f7420656c6261,%rax
  402b76:	74 6f 20 
  402b79:	48 89 45 10          	mov    %rax,0x10(%rbp)
  402b7d:	48 b8 63 72 65 61 74 	movabs $0x7320657461657263,%rax
  402b84:	65 20 73 
  402b87:	48 89 45 18          	mov    %rax,0x18(%rbp)
  402b8b:	c7 45 20 6f 63 6b 65 	movl   $0x656b636f,0x20(%rbp)
  402b92:	66 c7 45 24 74 00    	movw   $0x74,0x24(%rbp)
  402b98:	b8 ff ff ff ff       	mov    $0xffffffff,%eax
  402b9d:	e9 2a 01 00 00       	jmpq   402ccc <init_driver+0x1d7>
  402ba2:	89 c3                	mov    %eax,%ebx
  402ba4:	bf d5 38 40 00       	mov    $0x4038d5,%edi
  402ba9:	e8 c2 e1 ff ff       	callq  400d70 <gethostbyname@plt>
  402bae:	48 85 c0             	test   %rax,%rax
  402bb1:	75 68                	jne    402c1b <init_driver+0x126>
  402bb3:	48 b8 45 72 72 6f 72 	movabs $0x44203a726f727245,%rax
  402bba:	3a 20 44 
  402bbd:	48 89 45 00          	mov    %rax,0x0(%rbp)
  402bc1:	48 b8 4e 53 20 69 73 	movabs $0x6e7520736920534e,%rax
  402bc8:	20 75 6e 
  402bcb:	48 89 45 08          	mov    %rax,0x8(%rbp)
  402bcf:	48 b8 61 62 6c 65 20 	movabs $0x206f7420656c6261,%rax
  402bd6:	74 6f 20 
  402bd9:	48 89 45 10          	mov    %rax,0x10(%rbp)
  402bdd:	48 b8 72 65 73 6f 6c 	movabs $0x2065766c6f736572,%rax
  402be4:	76 65 20 
  402be7:	48 89 45 18          	mov    %rax,0x18(%rbp)
  402beb:	48 b8 73 65 72 76 65 	movabs $0x6120726576726573,%rax
  402bf2:	72 20 61 
  402bf5:	48 89 45 20          	mov    %rax,0x20(%rbp)
  402bf9:	c7 45 28 64 64 72 65 	movl   $0x65726464,0x28(%rbp)
  402c00:	66 c7 45 2c 73 73    	movw   $0x7373,0x2c(%rbp)
  402c06:	c6 45 2e 00          	movb   $0x0,0x2e(%rbp)
  402c0a:	89 df                	mov    %ebx,%edi
  402c0c:	e8 1f e1 ff ff       	callq  400d30 <close@plt>
  402c11:	b8 ff ff ff ff       	mov    $0xffffffff,%eax
  402c16:	e9 b1 00 00 00       	jmpq   402ccc <init_driver+0x1d7>
  402c1b:	48 c7 04 24 00 00 00 	movq   $0x0,(%rsp)
  402c22:	00 
  402c23:	48 c7 44 24 08 00 00 	movq   $0x0,0x8(%rsp)
  402c2a:	00 00 
  402c2c:	66 c7 04 24 02 00    	movw   $0x2,(%rsp)
  402c32:	48 63 50 14          	movslq 0x14(%rax),%rdx
  402c36:	48 8b 40 18          	mov    0x18(%rax),%rax
  402c3a:	48 8b 30             	mov    (%rax),%rsi
  402c3d:	48 8d 7c 24 04       	lea    0x4(%rsp),%rdi
  402c42:	b9 0c 00 00 00       	mov    $0xc,%ecx
  402c47:	e8 34 e1 ff ff       	callq  400d80 <__memmove_chk@plt>
  402c4c:	66 c7 44 24 02 3c 9a 	movw   $0x9a3c,0x2(%rsp)
  402c53:	ba 10 00 00 00       	mov    $0x10,%edx
  402c58:	48 89 e6             	mov    %rsp,%rsi
  402c5b:	89 df                	mov    %ebx,%edi
  402c5d:	e8 fe e1 ff ff       	callq  400e60 <connect@plt>
  402c62:	85 c0                	test   %eax,%eax
  402c64:	79 50                	jns    402cb6 <init_driver+0x1c1>
  402c66:	48 b8 45 72 72 6f 72 	movabs $0x55203a726f727245,%rax
  402c6d:	3a 20 55 
  402c70:	48 89 45 00          	mov    %rax,0x0(%rbp)
  402c74:	48 b8 6e 61 62 6c 65 	movabs $0x6f7420656c62616e,%rax
  402c7b:	20 74 6f 
  402c7e:	48 89 45 08          	mov    %rax,0x8(%rbp)
  402c82:	48 b8 20 63 6f 6e 6e 	movabs $0x7463656e6e6f6320,%rax
  402c89:	65 63 74 
  402c8c:	48 89 45 10          	mov    %rax,0x10(%rbp)
  402c90:	48 b8 20 74 6f 20 73 	movabs $0x76726573206f7420,%rax
  402c97:	65 72 76 
  402c9a:	48 89 45 18          	mov    %rax,0x18(%rbp)
  402c9e:	66 c7 45 20 65 72    	movw   $0x7265,0x20(%rbp)
  402ca4:	c6 45 22 00          	movb   $0x0,0x22(%rbp)
  402ca8:	89 df                	mov    %ebx,%edi
  402caa:	e8 81 e0 ff ff       	callq  400d30 <close@plt>
  402caf:	b8 ff ff ff ff       	mov    $0xffffffff,%eax
  402cb4:	eb 16                	jmp    402ccc <init_driver+0x1d7>
  402cb6:	89 df                	mov    %ebx,%edi
  402cb8:	e8 73 e0 ff ff       	callq  400d30 <close@plt>
  402cbd:	66 c7 45 00 4f 4b    	movw   $0x4b4f,0x0(%rbp)
  402cc3:	c6 45 02 00          	movb   $0x0,0x2(%rbp)
  402cc7:	b8 00 00 00 00       	mov    $0x0,%eax
  402ccc:	48 8b 4c 24 18       	mov    0x18(%rsp),%rcx
  402cd1:	64 48 33 0c 25 28 00 	xor    %fs:0x28,%rcx
  402cd8:	00 00 
  402cda:	74 05                	je     402ce1 <init_driver+0x1ec>
  402cdc:	e8 0f e0 ff ff       	callq  400cf0 <__stack_chk_fail@plt>
  402ce1:	48 83 c4 28          	add    $0x28,%rsp
  402ce5:	5b                   	pop    %rbx
  402ce6:	5d                   	pop    %rbp
  402ce7:	c3                   	retq   

0000000000402ce8 <driver_post>:
  402ce8:	53                   	push   %rbx
  402ce9:	4c 89 cb             	mov    %r9,%rbx
  402cec:	45 85 c0             	test   %r8d,%r8d
  402cef:	74 27                	je     402d18 <driver_post+0x30>
  402cf1:	48 89 ca             	mov    %rcx,%rdx
  402cf4:	be e4 38 40 00       	mov    $0x4038e4,%esi
  402cf9:	bf 01 00 00 00       	mov    $0x1,%edi
  402cfe:	b8 00 00 00 00       	mov    $0x0,%eax
  402d03:	e8 f8 e0 ff ff       	callq  400e00 <__printf_chk@plt>
  402d08:	66 c7 03 4f 4b       	movw   $0x4b4f,(%rbx)
  402d0d:	c6 43 02 00          	movb   $0x0,0x2(%rbx)
  402d11:	b8 00 00 00 00       	mov    $0x0,%eax
  402d16:	eb 3f                	jmp    402d57 <driver_post+0x6f>
  402d18:	48 85 ff             	test   %rdi,%rdi
  402d1b:	74 2c                	je     402d49 <driver_post+0x61>
  402d1d:	80 3f 00             	cmpb   $0x0,(%rdi)
  402d20:	74 27                	je     402d49 <driver_post+0x61>
  402d22:	48 83 ec 08          	sub    $0x8,%rsp
  402d26:	41 51                	push   %r9
  402d28:	49 89 c9             	mov    %rcx,%r9
  402d2b:	49 89 d0             	mov    %rdx,%r8
  402d2e:	48 89 f9             	mov    %rdi,%rcx
  402d31:	48 89 f2             	mov    %rsi,%rdx
  402d34:	be 9a 3c 00 00       	mov    $0x3c9a,%esi
  402d39:	bf d5 38 40 00       	mov    $0x4038d5,%edi
  402d3e:	e8 19 f6 ff ff       	callq  40235c <submitr>
  402d43:	48 83 c4 10          	add    $0x10,%rsp
  402d47:	eb 0e                	jmp    402d57 <driver_post+0x6f>
  402d49:	66 c7 03 4f 4b       	movw   $0x4b4f,(%rbx)
  402d4e:	c6 43 02 00          	movb   $0x0,0x2(%rbx)
  402d52:	b8 00 00 00 00       	mov    $0x0,%eax
  402d57:	5b                   	pop    %rbx
  402d58:	c3                   	retq   

0000000000402d59 <check>:
  402d59:	89 f8                	mov    %edi,%eax
  402d5b:	c1 e8 1c             	shr    $0x1c,%eax
  402d5e:	85 c0                	test   %eax,%eax
  402d60:	74 1d                	je     402d7f <check+0x26>
  402d62:	b9 00 00 00 00       	mov    $0x0,%ecx
  402d67:	eb 0b                	jmp    402d74 <check+0x1b>
  402d69:	89 f8                	mov    %edi,%eax
  402d6b:	d3 e8                	shr    %cl,%eax
  402d6d:	3c 0a                	cmp    $0xa,%al
  402d6f:	74 14                	je     402d85 <check+0x2c>
  402d71:	83 c1 08             	add    $0x8,%ecx
  402d74:	83 f9 1f             	cmp    $0x1f,%ecx
  402d77:	7e f0                	jle    402d69 <check+0x10>
  402d79:	b8 01 00 00 00       	mov    $0x1,%eax
  402d7e:	c3                   	retq   
  402d7f:	b8 00 00 00 00       	mov    $0x0,%eax
  402d84:	c3                   	retq   
  402d85:	b8 00 00 00 00       	mov    $0x0,%eax
  402d8a:	c3                   	retq   

0000000000402d8b <gencookie>:
  402d8b:	53                   	push   %rbx
  402d8c:	83 c7 01             	add    $0x1,%edi
  402d8f:	e8 0c df ff ff       	callq  400ca0 <srandom@plt>
  402d94:	e8 27 e0 ff ff       	callq  400dc0 <random@plt>
  402d99:	89 c3                	mov    %eax,%ebx
  402d9b:	89 c7                	mov    %eax,%edi
  402d9d:	e8 b7 ff ff ff       	callq  402d59 <check>
  402da2:	85 c0                	test   %eax,%eax
  402da4:	74 ee                	je     402d94 <gencookie+0x9>
  402da6:	89 d8                	mov    %ebx,%eax
  402da8:	5b                   	pop    %rbx
  402da9:	c3                   	retq   
  402daa:	66 0f 1f 44 00 00    	nopw   0x0(%rax,%rax,1)

0000000000402db0 <__libc_csu_init>:
  402db0:	41 57                	push   %r15
  402db2:	41 56                	push   %r14
  402db4:	41 89 ff             	mov    %edi,%r15d
  402db7:	41 55                	push   %r13
  402db9:	41 54                	push   %r12
  402dbb:	4c 8d 25 4e 20 20 00 	lea    0x20204e(%rip),%r12        # 604e10 <__frame_dummy_init_array_entry>
  402dc2:	55                   	push   %rbp
  402dc3:	48 8d 2d 4e 20 20 00 	lea    0x20204e(%rip),%rbp        # 604e18 <__init_array_end>
  402dca:	53                   	push   %rbx
  402dcb:	49 89 f6             	mov    %rsi,%r14
  402dce:	49 89 d5             	mov    %rdx,%r13
  402dd1:	4c 29 e5             	sub    %r12,%rbp
  402dd4:	48 83 ec 08          	sub    $0x8,%rsp
  402dd8:	48 c1 fd 03          	sar    $0x3,%rbp
  402ddc:	e8 67 de ff ff       	callq  400c48 <_init>
  402de1:	48 85 ed             	test   %rbp,%rbp
  402de4:	74 20                	je     402e06 <__libc_csu_init+0x56>
  402de6:	31 db                	xor    %ebx,%ebx
  402de8:	0f 1f 84 00 00 00 00 	nopl   0x0(%rax,%rax,1)
  402def:	00 
  402df0:	4c 89 ea             	mov    %r13,%rdx
  402df3:	4c 89 f6             	mov    %r14,%rsi
  402df6:	44 89 ff             	mov    %r15d,%edi
  402df9:	41 ff 14 dc          	callq  *(%r12,%rbx,8)
  402dfd:	48 83 c3 01          	add    $0x1,%rbx
  402e01:	48 39 eb             	cmp    %rbp,%rbx
  402e04:	75 ea                	jne    402df0 <__libc_csu_init+0x40>
  402e06:	48 83 c4 08          	add    $0x8,%rsp
  402e0a:	5b                   	pop    %rbx
  402e0b:	5d                   	pop    %rbp
  402e0c:	41 5c                	pop    %r12
  402e0e:	41 5d                	pop    %r13
  402e10:	41 5e                	pop    %r14
  402e12:	41 5f                	pop    %r15
  402e14:	c3                   	retq   
  402e15:	90                   	nop
  402e16:	66 2e 0f 1f 84 00 00 	nopw   %cs:0x0(%rax,%rax,1)
  402e1d:	00 00 00 

0000000000402e20 <__libc_csu_fini>:
  402e20:	f3 c3                	repz retq 

Disassembly of section .fini:

0000000000402e24 <_fini>:
  402e24:	48 83 ec 08          	sub    $0x8,%rsp
  402e28:	48 83 c4 08          	add    $0x8,%rsp
  402e2c:	c3                   	retq   
